

HI-TECH Software PIC PRO Macro Assembler V9.82 build 9453 
                                                                                               Wed Nov 20 16:01:04 2019

HI-TECH Software Omniscient Code Generator (PRO mode) build 9453
     1                           	processor	16F887
     2                           	opt	pw 120
     3                           	opt	pm
     4                           	psect	config,global,class=CONFIG,delta=2
     5                           	psect	strings,global,class=STRING,delta=2
     6                           	psect	cinit,global,class=CODE,delta=2
     7                           	psect	bssBANK1,global,class=BANK1,space=1,delta=1
     8                           	psect	cstackBANK1,global,class=BANK1,space=1,delta=1
     9                           	psect	cstackCOMMON,global,class=COMMON,space=1,delta=1
    10                           	psect	cstackBANK0,global,class=BANK0,space=1,delta=1
    11                           	psect	maintext,global,class=CODE,delta=2
    12                           	psect	text718,local,class=CODE,delta=2
    13                           	psect	text719,local,class=CODE,delta=2
    14                           	psect	text724,local,class=CODE,delta=2
    15                           	psect	text728,local,class=CODE,delta=2
    16                           	psect	text730,local,class=CODE,delta=2
    17                           	psect	text745,local,class=CODE,delta=2
    18                           	psect	text746,local,class=CODE,delta=2
    19                           	psect	text748,local,class=CODE,delta=2
    20                           	psect	text755,local,class=CODE,delta=2
    21                           	psect	text757,local,class=CODE,delta=2
    22                           	psect	pa_nodes,global,class=CODE,delta=2
    23                           	dabs	1,0x7E,2
    24  000A                     	;#
    25                           
    26                           	psect	config
    27  2007  E8D4               	dw	59604	;#
    28  2008  FFFF               	dw	65535	;#
    29                           
    30                           	psect	strings
    31  1000                     __pstrings:	
    32  1000                     stringtab:	
    33                           ;	global	stringdir,stringtab,__stringbase
    34                           
    35                           
    36                           ;	String table - string pointers are 1 byte each
    37  1000  1BFF               	btfsc	btemp+1,7
    38  1001  280A               	ljmp	stringcode
    39  1002  1383               	bcf	3,7
    40  1003  187F               	btfsc	btemp+1,0
    41  1004  1783               	bsf	3,7
    42  1005  0800               	movf	0,w
    43  1006  0A84               	incf	4,f
    44  1007  1903               	skipnz
    45  1008  0AFF               	incf	btemp+1,f
    46  1009  0008               	return
    47  100A                     stringcode:	
    48  100A                     stringdir:	
    49  100A  3010               	movlw	high stringdir
    50  100B  008A               	movwf	10
    51  100C  0804               	movf	4,w
    52  100D  0A84               	incf	4,f
    53  100E  0782               	addwf	2,f
    54  100F                     __stringbase:	
    55  100F  3400               	retlw	0
    56  1010                     __npowers_:	
    57  1010  3400               	retlw	0
    58  1011  3480               	retlw	128
    59  1012  343F               	retlw	63
    60  1013  34CD               	retlw	205
    61  1014  34CC               	retlw	204
    62  1015  343D               	retlw	61
    63  1016  34D7               	retlw	215
    64  1017  3423               	retlw	35
    65  1018  343C               	retlw	60
    66  1019  3412               	retlw	18
    67  101A  3483               	retlw	131
    68  101B  343A               	retlw	58
    69  101C  34B7               	retlw	183
    70  101D  34D1               	retlw	209
    71  101E  3438               	retlw	56
    72  101F  34C6               	retlw	198
    73  1020  3427               	retlw	39
    74  1021  3437               	retlw	55
    75  1022  3438               	retlw	56
    76  1023  3486               	retlw	134
    77  1024  3435               	retlw	53
    78  1025  34C0               	retlw	192
    79  1026  34D6               	retlw	214
    80  1027  3433               	retlw	51
    81  1028  34CC               	retlw	204
    82  1029  342B               	retlw	43
    83  102A  3432               	retlw	50
    84  102B  3470               	retlw	112
    85  102C  3489               	retlw	137
    86  102D  3430               	retlw	48
    87  102E  34E7               	retlw	231
    88  102F  34DB               	retlw	219
    89  1030  342E               	retlw	46
    90  1031  34E5               	retlw	229
    91  1032  343C               	retlw	60
    92  1033  341E               	retlw	30
    93  1034  3442               	retlw	66
    94  1035  34A2               	retlw	162
    95  1036  340D               	retlw	13
    96  1037                     __powers_:	
    97  1037  3400               	retlw	0
    98  1038  3480               	retlw	128
    99  1039  343F               	retlw	63
   100  103A  3400               	retlw	0
   101  103B  3420               	retlw	32
   102  103C  3441               	retlw	65
   103  103D  3400               	retlw	0
   104  103E  34C8               	retlw	200
   105  103F  3442               	retlw	66
   106  1040  3400               	retlw	0
   107  1041  347A               	retlw	122
   108  1042  3444               	retlw	68
   109  1043  3440               	retlw	64
   110  1044  341C               	retlw	28
   111  1045  3446               	retlw	70
   112  1046  3450               	retlw	80
   113  1047  34C3               	retlw	195
   114  1048  3447               	retlw	71
   115  1049  3424               	retlw	36
   116  104A  3474               	retlw	116
   117  104B  3449               	retlw	73
   118  104C  3497               	retlw	151
   119  104D  3418               	retlw	24
   120  104E  344B               	retlw	75
   121  104F  34BC               	retlw	188
   122  1050  34BE               	retlw	190
   123  1051  344C               	retlw	76
   124  1052  346B               	retlw	107
   125  1053  346E               	retlw	110
   126  1054  344E               	retlw	78
   127  1055  3403               	retlw	3
   128  1056  3415               	retlw	21
   129  1057  3450               	retlw	80
   130  1058  3479               	retlw	121
   131  1059  34AD               	retlw	173
   132  105A  3460               	retlw	96
   133  105B  34F3               	retlw	243
   134  105C  3449               	retlw	73
   135  105D  3471               	retlw	113
   136  105E                     _dpowers:	
   137  105E  3401               	retlw	1
   138  105F  3400               	retlw	0
   139  1060  3400               	retlw	0
   140  1061  3400               	retlw	0
   141  1062  340A               	retlw	10
   142  1063  3400               	retlw	0
   143  1064  3400               	retlw	0
   144  1065  3400               	retlw	0
   145  1066  3464               	retlw	100
   146  1067  3400               	retlw	0
   147  1068  3400               	retlw	0
   148  1069  3400               	retlw	0
   149  106A  34E8               	retlw	232
   150  106B  3403               	retlw	3
   151  106C  3400               	retlw	0
   152  106D  3400               	retlw	0
   153  106E  3410               	retlw	16
   154  106F  3427               	retlw	39
   155  1070  3400               	retlw	0
   156  1071  3400               	retlw	0
   157  1072  34A0               	retlw	160
   158  1073  3486               	retlw	134
   159  1074  3401               	retlw	1
   160  1075  3400               	retlw	0
   161  1076  3440               	retlw	64
   162  1077  3442               	retlw	66
   163  1078  340F               	retlw	15
   164  1079  3400               	retlw	0
   165  107A  3480               	retlw	128
   166  107B  3496               	retlw	150
   167  107C  3498               	retlw	152
   168  107D  3400               	retlw	0
   169  107E  3400               	retlw	0
   170  107F  34E1               	retlw	225
   171  1080  34F5               	retlw	245
   172  1081  3405               	retlw	5
   173  1082  3400               	retlw	0
   174  1083  34CA               	retlw	202
   175  1084  349A               	retlw	154
   176  1085  343B               	retlw	59
   177  001F                     _ADCON0	set	31
   178  001E                     _ADRESH	set	30
   179  0017                     _CCP1CON	set	23
   180  001D                     _CCP2CON	set	29
   181  0015                     _CCPR1L	set	21
   182  001B                     _CCPR2L	set	27
   183  000C                     _PIR1	set	12
   184  000C                     _PIR1bits	set	12
   185  0006                     _PORTB	set	6
   186  0008                     _PORTD	set	8
   187  0018                     _RCSTA	set	24
   188  0013                     _SSPBUF	set	19
   189  0014                     _SSPCON	set	20
   190  0012                     _T2CON	set	18
   191  0001                     _TMR0	set	1
   192  0019                     _TXREG	set	25
   193  00F9                     _GO_DONE	set	249
   194  002C                     _RA4	set	44
   195  002E                     _RA6	set	46
   196  002F                     _RA7	set	47
   197  005A                     _T0IF	set	90
   198  0064                     _TXIF	set	100
   199  009E                     _ADRESL	set	158
   200  0081                     _OPTION_REG	set	129
   201  008F                     _OSCCON	set	143
   202  0092                     _PR2	set	146
   203  0099                     _SPBRG	set	153
   204  0093                     _SSPADD	set	147
   205  0091                     _SSPCON2	set	145
   206  0091                     _SSPCON2bits	set	145
   207  0094                     _SSPSTAT	set	148
   208  0085                     _TRISA	set	133
   209  0086                     _TRISB	set	134
   210  0087                     _TRISC	set	135
   211  0087                     _TRISCbits	set	135
   212  0088                     _TRISD	set	136
   213  0089                     _TRISE	set	137
   214  0098                     _TXSTA	set	152
   215  0439                     _TRISC1	set	1081
   216  043A                     _TRISC2	set	1082
   217  043E                     _TRISC6	set	1086
   218  043F                     _TRISC7	set	1087
   219  0188                     _ANSEL	set	392
   220  0189                     _ANSELH	set	393
   221  0187                     _BAUDCTL	set	391
   222  0005                     _PORTA	set	5
   223  1086                     STR_1:	
   224  1086  3445               	retlw	69	;'E'
   225  1087  3473               	retlw	115	;'s'
   226  1088  3463               	retlw	99	;'c'
   227  1089  3472               	retlw	114	;'r'
   228  108A  3469               	retlw	105	;'i'
   229  108B  3462               	retlw	98	;'b'
   230  108C  3469               	retlw	105	;'i'
   231  108D  3465               	retlw	101	;'e'
   232  108E  346E               	retlw	110	;'n'
   233  108F  3464               	retlw	100	;'d'
   234  1090  346F               	retlw	111	;'o'
   235  1091  342E               	retlw	46	;'.'
   236  1092  342E               	retlw	46	;'.'
   237  1093  342E               	retlw	46	;'.'
   238  1094  3400               	retlw	0
   239  1095                     STR_7:	
   240  1095  344C               	retlw	76	;'L'
   241  1096  3465               	retlw	101	;'e'
   242  1097  3479               	retlw	121	;'y'
   243  1098  3465               	retlw	101	;'e'
   244  1099  346E               	retlw	110	;'n'
   245  109A  3464               	retlw	100	;'d'
   246  109B  346F               	retlw	111	;'o'
   247  109C  342E               	retlw	46	;'.'
   248  109D  342E               	retlw	46	;'.'
   249  109E  342E               	retlw	46	;'.'
   250  109F  342E               	retlw	46	;'.'
   251  10A0  3420               	retlw	32	;' '
   252  10A1  3400               	retlw	0
   253  10A2                     STR_5:	
   254  10A2  3456               	retlw	86	;'V'
   255  10A3  3425               	retlw	37	;'%'
   256  10A4  3469               	retlw	105	;'i'
   257  10A5  3420               	retlw	32	;' '
   258  10A6  343A               	retlw	58	;':'
   259  10A7  3420               	retlw	32	;' '
   260  10A8  3425               	retlw	37	;'%'
   261  10A9  3473               	retlw	115	;'s'
   262  10AA  3420               	retlw	32	;' '
   263  10AB  3420               	retlw	32	;' '
   264  10AC  3400               	retlw	0
   265  10AD                     STR_6:	
   266  10AD  344C               	retlw	76	;'L'
   267  10AE  3465               	retlw	101	;'e'
   268  10AF  3479               	retlw	121	;'y'
   269  10B0  3465               	retlw	101	;'e'
   270  10B1  346E               	retlw	110	;'n'
   271  10B2  3464               	retlw	100	;'d'
   272  10B3  346F               	retlw	111	;'o'
   273  10B4  342E               	retlw	46	;'.'
   274  10B5  342E               	retlw	46	;'.'
   275  10B6  342E               	retlw	46	;'.'
   276  10B7  3400               	retlw	0
   277  10B8                     STR_11:	
   278  10B8  3428               	retlw	40	;'('
   279  10B9  346E               	retlw	110	;'n'
   280  10BA  3475               	retlw	117	;'u'
   281  10BB  346C               	retlw	108	;'l'
   282  10BC  346C               	retlw	108	;'l'
   283  10BD  3429               	retlw	41	;')'
   284  10BE  3400               	retlw	0
   285  10BF                     STR_3:	
   286  10BF  3425               	retlw	37	;'%'
   287  10C0  3431               	retlw	49	;'1'
   288  10C1  342E               	retlw	46	;'.'
   289  10C2  3433               	retlw	51	;'3'
   290  10C3  3466               	retlw	102	;'f'
   291  10C4  3400               	retlw	0
   292  10C5                     STR_4:	
   293  10C5  3456               	retlw	86	;'V'
   294  10C6  3431               	retlw	49	;'1'
   295  10C7  343A               	retlw	58	;':'
   296  10C8  3400               	retlw	0
   297  10A2                     
   298                           	psect	cinit
   299  0052                     start_initialization:	
   300                           
   301                           ; Clear objects allocated to BANK1
   302  0052  1683               	bsf	3,5	;RP0=1, select bank1
   303  0053  01D0               	clrf	__pbssBANK1& (0+127)
   304  0054  01D1               	clrf	(__pbssBANK1+1)& (0+127)
   305  0055  01D2               	clrf	(__pbssBANK1+2)& (0+127)
   306  0056  01D3               	clrf	(__pbssBANK1+3)& (0+127)
   307  0057  01D4               	clrf	(__pbssBANK1+4)& (0+127)
   308  0058  01D5               	clrf	(__pbssBANK1+5)& (0+127)
   309  0059  01D6               	clrf	(__pbssBANK1+6)& (0+127)
   310  005A  01D7               	clrf	(__pbssBANK1+7)& (0+127)
   311  005B  01D8               	clrf	(__pbssBANK1+8)& (0+127)
   312  005C  01D9               	clrf	(__pbssBANK1+9)& (0+127)
   313  005D                     end_of_initialization:	
   314                           ;End of C runtime variable initialization code
   315                           
   316  005D  0183               	clrf	3
   317  005E  120A  158A  29A0   	ljmp	_main	;jump to C main() function
   318                           
   319                           	psect	bssBANK1
   320  00D0                     __pbssBANK1:	
   321  00D0                     _num:	
   322  00D0                     	ds	3
   323  00D3                     _nin:	
   324  00D3                     	ds	2
   325  00D5                     _carac:	
   326  00D5                     	ds	5
   327                           
   328                           	psect	cstackBANK1
   329  00A0                     __pcstackBANK1:	
   330  00A0                     _sprintf$1951:	
   331                           
   332                           ; 4 bytes @ 0x0
   333  00A0                     	ds	4
   334  00A4                     sprintf@ap:	
   335                           
   336                           ; 1 bytes @ 0x4
   337  00A4                     	ds	1
   338  00A5                     sprintf@integ:	
   339                           
   340                           ; 3 bytes @ 0x5
   341  00A5                     	ds	3
   342  00A8                     sprintf@flag:	
   343                           
   344                           ; 2 bytes @ 0x8
   345  00A8                     	ds	2
   346  00AA                     sprintf@width:	
   347                           
   348                           ; 2 bytes @ 0xA
   349  00AA                     	ds	2
   350  00AC                     sprintf@exp:	
   351                           
   352                           ; 2 bytes @ 0xC
   353  00AC                     	ds	2
   354  00AE                     sprintf@fval:	
   355                           
   356                           ; 3 bytes @ 0xE
   357  00AE                     	ds	3
   358  00B1                     sprintf@sp:	
   359                           
   360                           ; 1 bytes @ 0x11
   361  00B1                     	ds	1
   362  00B2                     sprintf@prec:	
   363                           
   364                           ; 2 bytes @ 0x12
   365  00B2                     	ds	2
   366  00B4                     sprintf@c:	
   367                           
   368                           ; 1 bytes @ 0x14
   369  00B4                     	ds	1
   370  00B5                     sprintf@_val:	
   371                           
   372                           ; 4 bytes @ 0x15
   373  00B5                     	ds	4
   374  00B9                     main@buffer:	
   375                           
   376                           ; 15 bytes @ 0x19
   377  00B9                     	ds	15
   378  00C8                     main@cnt1:	
   379                           
   380                           ; 1 bytes @ 0x28
   381  00C8                     	ds	1
   382  00C9                     main@i:	
   383                           
   384                           ; 2 bytes @ 0x29
   385  00C9                     	ds	2
   386  00CB                     main@x:	
   387                           
   388                           ; 1 bytes @ 0x2B
   389  00CB                     	ds	1
   390  00CC                     main@x_1874:	
   391                           
   392                           ; 1 bytes @ 0x2C
   393  00CC                     	ds	1
   394  00CD                     main@x_1877:	
   395                           
   396                           ; 1 bytes @ 0x2D
   397  00CD                     	ds	1
   398  00CE                     main@x_1881:	
   399                           
   400                           ; 1 bytes @ 0x2E
   401  00CE                     	ds	1
   402  00CF                     main@cnt2:	
   403                           
   404                           ; 1 bytes @ 0x2F
   405  00CF                     	ds	1
   406                           
   407                           	psect	cstackCOMMON
   408  0070                     __pcstackCOMMON:	
   409  0070                     ?_putch:	
   410  0070                     ??_putch:	
   411                           ; 0 bytes @ 0x0
   412                           
   413  0070                     ?_isdigit:	
   414                           ; 0 bytes @ 0x0
   415                           
   416  0070                     ??_isdigit:	
   417                           ; 1 bit 
   418                           
   419  0070                     ?_msecbase:	
   420                           ; 0 bytes @ 0x0
   421                           
   422  0070                     ??_msecbase:	
   423                           ; 0 bytes @ 0x0
   424                           
   425  0070                     ?_pause:	
   426                           ; 0 bytes @ 0x0
   427                           
   428  0070                     ?_i2c_init:	
   429                           ; 0 bytes @ 0x0
   430                           
   431  0070                     ??_i2c_init:	
   432                           ; 0 bytes @ 0x0
   433                           
   434  0070                     ?_i2c_start:	
   435                           ; 0 bytes @ 0x0
   436                           
   437  0070                     ??_i2c_start:	
   438                           ; 0 bytes @ 0x0
   439                           
   440  0070                     ?_i2c_restart:	
   441                           ; 0 bytes @ 0x0
   442                           
   443  0070                     ??_i2c_restart:	
   444                           ; 0 bytes @ 0x0
   445                           
   446  0070                     ?_i2c_stop:	
   447                           ; 0 bytes @ 0x0
   448                           
   449  0070                     ??_i2c_stop:	
   450                           ; 0 bytes @ 0x0
   451                           
   452  0070                     ??_i2c_read:	
   453                           ; 0 bytes @ 0x0
   454                           
   455  0070                     ?_I2C_nack:	
   456                           ; 0 bytes @ 0x0
   457                           
   458  0070                     ??_I2C_nack:	
   459                           ; 0 bytes @ 0x0
   460                           
   461  0070                     ?_i2c_write:	
   462                           ; 0 bytes @ 0x0
   463                           
   464  0070                     ??_i2c_write:	
   465                           ; 0 bytes @ 0x0
   466                           
   467  0070                     ?_lcd_write:	
   468                           ; 0 bytes @ 0x0
   469                           
   470  0070                     ?_lcd_clear:	
   471                           ; 0 bytes @ 0x0
   472                           
   473  0070                     ?_lcd_goto:	
   474                           ; 0 bytes @ 0x0
   475                           
   476  0070                     ?_main:	
   477                           ; 0 bytes @ 0x0
   478                           
   479  0070                     ?___ftge:	
   480                           ; 0 bytes @ 0x0
   481                           
   482  0070                     ?_i2c_read:	
   483                           ; 1 bit 
   484                           
   485  0070                     ?___lbmod:	
   486                           ; 1 bytes @ 0x0
   487                           
   488  0070                     ?___wmul:	
   489                           ; 1 bytes @ 0x0
   490                           
   491  0070                     ?___awmod:	
   492                           ; 2 bytes @ 0x0
   493                           
   494  0070                     ?___ftpack:	
   495                           ; 2 bytes @ 0x0
   496                           
   497  0070                     ?___ftneg:	
   498                           ; 3 bytes @ 0x0
   499                           
   500  0070                     ?__tdiv_to_l_:	
   501                           ; 3 bytes @ 0x0
   502                           
   503  0070                     ?__div_to_l_:	
   504                           ; 4 bytes @ 0x0
   505                           
   506  0070                     ?___lldiv:	
   507                           ; 4 bytes @ 0x0
   508                           
   509  0070                     i2c_write@I2C_data:	
   510                           ; 4 bytes @ 0x0
   511                           
   512  0070                     putch@dato:	
   513                           ; 1 bytes @ 0x0
   514                           
   515  0070                     _isdigit$2459:	
   516                           ; 1 bytes @ 0x0
   517                           
   518  0070                     ___lbmod@divisor:	
   519                           ; 1 bytes @ 0x0
   520                           
   521  0070                     pause@usvalue:	
   522                           ; 1 bytes @ 0x0
   523                           
   524  0070                     ___wmul@multiplier:	
   525                           ; 2 bytes @ 0x0
   526                           
   527  0070                     ___awmod@divisor:	
   528                           ; 2 bytes @ 0x0
   529                           
   530  0070                     ___ftneg@f1:	
   531                           ; 2 bytes @ 0x0
   532                           
   533  0070                     ___ftge@ff1:	
   534                           ; 3 bytes @ 0x0
   535                           
   536  0070                     __tdiv_to_l_@f1:	
   537                           ; 3 bytes @ 0x0
   538                           
   539  0070                     __div_to_l_@f1:	
   540                           ; 3 bytes @ 0x0
   541                           
   542  0070                     ___ftpack@arg:	
   543                           ; 3 bytes @ 0x0
   544                           
   545  0070                     ___lldiv@divisor:	
   546                           ; 3 bytes @ 0x0
   547                           
   548                           
   549                           ; 4 bytes @ 0x0
   550  0070                     	ds	1
   551  0071                     ??___lbmod:	
   552  0071                     ?_I2C_EEIN:	
   553                           ; 0 bytes @ 0x1
   554                           
   555  0071                     I2C_EEIN@address2:	
   556                           ; 1 bytes @ 0x1
   557                           
   558  0071                     isdigit@c:	
   559                           ; 1 bytes @ 0x1
   560                           
   561                           
   562                           ; 1 bytes @ 0x1
   563  0071                     	ds	1
   564  0072                     ??_pause:	
   565  0072                     ??_I2C_EEIN:	
   566                           ; 0 bytes @ 0x2
   567                           
   568  0072                     I2C_EEIN@address1:	
   569                           ; 0 bytes @ 0x2
   570                           
   571  0072                     ___lbmod@dividend:	
   572                           ; 1 bytes @ 0x2
   573                           
   574  0072                     pause@x:	
   575                           ; 1 bytes @ 0x2
   576                           
   577  0072                     ___wmul@multiplicand:	
   578                           ; 2 bytes @ 0x2
   579                           
   580  0072                     ___awmod@dividend:	
   581                           ; 2 bytes @ 0x2
   582                           
   583                           
   584                           ; 2 bytes @ 0x2
   585  0072                     	ds	1
   586  0073                     ??___ftneg:	
   587  0073                     I2C_EEIN@data:	
   588                           ; 0 bytes @ 0x3
   589                           
   590  0073                     ___lbmod@counter:	
   591                           ; 1 bytes @ 0x3
   592                           
   593  0073                     ___ftpack@exp:	
   594                           ; 1 bytes @ 0x3
   595                           
   596  0073                     ___ftge@ff2:	
   597                           ; 1 bytes @ 0x3
   598                           
   599  0073                     __tdiv_to_l_@f2:	
   600                           ; 3 bytes @ 0x3
   601                           
   602  0073                     __div_to_l_@f2:	
   603                           ; 3 bytes @ 0x3
   604                           
   605                           
   606                           ; 3 bytes @ 0x3
   607  0073                     	ds	1
   608  0074                     ?_I2C_EEOUT:	
   609  0074                     ??_lcd_write:	
   610                           ; 0 bytes @ 0x4
   611                           
   612  0074                     ??___wmul:	
   613                           ; 0 bytes @ 0x4
   614                           
   615  0074                     ??___awmod:	
   616                           ; 0 bytes @ 0x4
   617                           
   618  0074                     I2C_EEOUT@address2:	
   619                           ; 0 bytes @ 0x4
   620                           
   621  0074                     lcd_write@c:	
   622                           ; 1 bytes @ 0x4
   623                           
   624  0074                     ___lbmod@rem:	
   625                           ; 1 bytes @ 0x4
   626                           
   627  0074                     ___awmod@counter:	
   628                           ; 1 bytes @ 0x4
   629                           
   630  0074                     ___ftpack@sign:	
   631                           ; 1 bytes @ 0x4
   632                           
   633  0074                     ___wmul@product:	
   634                           ; 1 bytes @ 0x4
   635                           
   636  0074                     ___lldiv@dividend:	
   637                           ; 2 bytes @ 0x4
   638                           
   639                           
   640                           ; 4 bytes @ 0x4
   641  0074                     	ds	1
   642  0075                     ??___ftpack:	
   643  0075                     ??_lcd_clear:	
   644                           ; 0 bytes @ 0x5
   645                           
   646  0075                     ?_lcd_puts:	
   647                           ; 0 bytes @ 0x5
   648                           
   649  0075                     ??_lcd_goto:	
   650                           ; 0 bytes @ 0x5
   651                           
   652  0075                     ?___lbdiv:	
   653                           ; 0 bytes @ 0x5
   654                           
   655  0075                     I2C_EEOUT@data:	
   656                           ; 1 bytes @ 0x5
   657                           
   658  0075                     lcd_goto@pos:	
   659                           ; 1 bytes @ 0x5
   660                           
   661  0075                     ___lbdiv@divisor:	
   662                           ; 1 bytes @ 0x5
   663                           
   664  0075                     ___awmod@sign:	
   665                           ; 1 bytes @ 0x5
   666                           
   667  0075                     lcd_puts@s:	
   668                           ; 1 bytes @ 0x5
   669                           
   670                           
   671                           ; 2 bytes @ 0x5
   672  0075                     	ds	1
   673  0076                     ??__tdiv_to_l_:	
   674  0076                     ??__div_to_l_:	
   675                           ; 0 bytes @ 0x6
   676                           
   677  0076                     ??_I2C_EEOUT:	
   678                           ; 0 bytes @ 0x6
   679                           
   680  0076                     ??___lbdiv:	
   681                           ; 0 bytes @ 0x6
   682                           
   683  0076                     ??___ftge:	
   684                           ; 0 bytes @ 0x6
   685                           
   686  0076                     ?___awdiv:	
   687                           ; 0 bytes @ 0x6
   688                           
   689  0076                     I2C_EEOUT@address1:	
   690                           ; 2 bytes @ 0x6
   691                           
   692  0076                     ___lbdiv@dividend:	
   693                           ; 1 bytes @ 0x6
   694                           
   695  0076                     ___awdiv@divisor:	
   696                           ; 1 bytes @ 0x6
   697                           
   698                           
   699                           ; 2 bytes @ 0x6
   700  0076                     	ds	1
   701  0077                     ??_lcd_puts:	
   702  0077                     ___lbdiv@counter:	
   703                           ; 0 bytes @ 0x7
   704                           
   705                           
   706                           ; 1 bytes @ 0x7
   707  0077                     	ds	1
   708  0078                     ??___lldiv:	
   709  0078                     ?___awtoft:	
   710                           ; 0 bytes @ 0x8
   711                           
   712  0078                     ?___lltoft:	
   713                           ; 3 bytes @ 0x8
   714                           
   715  0078                     ___lbdiv@quotient:	
   716                           ; 3 bytes @ 0x8
   717                           
   718  0078                     ___awtoft@c:	
   719                           ; 1 bytes @ 0x8
   720                           
   721  0078                     ___awdiv@dividend:	
   722                           ; 2 bytes @ 0x8
   723                           
   724  0078                     ___lldiv@quotient:	
   725                           ; 2 bytes @ 0x8
   726                           
   727  0078                     ___lltoft@c:	
   728                           ; 4 bytes @ 0x8
   729                           
   730                           
   731                           ; 4 bytes @ 0x8
   732  0078                     	ds	1
   733  0079                     ?___bmul:	
   734  0079                     ___bmul@multiplicand:	
   735                           ; 1 bytes @ 0x9
   736                           
   737                           
   738                           ; 1 bytes @ 0x9
   739  0079                     	ds	1
   740  007A                     ??___bmul:	
   741  007A                     ??___awdiv:	
   742                           ; 0 bytes @ 0xA
   743                           
   744  007A                     ___bmul@product:	
   745                           ; 0 bytes @ 0xA
   746                           
   747  007A                     ___awdiv@counter:	
   748                           ; 1 bytes @ 0xA
   749                           
   750                           
   751                           ; 1 bytes @ 0xA
   752  007A                     	ds	1
   753  007B                     ??___awtoft:	
   754  007B                     ___bmul@multiplier:	
   755                           ; 0 bytes @ 0xB
   756                           
   757  007B                     ___awtoft@sign:	
   758                           ; 1 bytes @ 0xB
   759                           
   760  007B                     ___awdiv@sign:	
   761                           ; 1 bytes @ 0xB
   762                           
   763                           
   764                           ; 1 bytes @ 0xB
   765  007B                     	ds	1
   766  007C                     ??___lltoft:	
   767  007C                     ___lldiv@counter:	
   768                           ; 0 bytes @ 0xC
   769                           
   770  007C                     ___lltoft@exp:	
   771                           ; 1 bytes @ 0xC
   772                           
   773  007C                     ___awdiv@quotient:	
   774                           ; 1 bytes @ 0xC
   775                           
   776                           
   777                           ; 2 bytes @ 0xC
   778  007C                     	ds	1
   779  007D                     ??___llmod:	
   780  007D                     ___llmod@counter:	
   781                           ; 0 bytes @ 0xD
   782                           
   783                           
   784                           ; 1 bytes @ 0xD
   785  007D                     	ds	1
   786  007E                     ??_fround:	
   787  007E                     ??___ftsub:	
   788                           ; 0 bytes @ 0xE
   789                           
   790                           
   791                           	psect	cstackBANK0
   792  0020                     __pcstackBANK0:	
   793                           ; 0 bytes @ 0xE
   794                           
   795  0020                     ?___fttol:	
   796  0020                     ?___llmod:	
   797                           ; 4 bytes @ 0x0
   798                           
   799  0020                     ___fttol@f1:	
   800                           ; 4 bytes @ 0x0
   801                           
   802  0020                     ___llmod@divisor:	
   803                           ; 3 bytes @ 0x0
   804                           
   805  0020                     __tdiv_to_l_@quot:	
   806                           ; 4 bytes @ 0x0
   807                           
   808  0020                     __div_to_l_@quot:	
   809                           ; 4 bytes @ 0x0
   810                           
   811                           
   812                           ; 4 bytes @ 0x0
   813  0020                     	ds	4
   814  0024                     ??___fttol:	
   815  0024                     __tdiv_to_l_@cntr:	
   816                           ; 0 bytes @ 0x4
   817                           
   818  0024                     __div_to_l_@cntr:	
   819                           ; 1 bytes @ 0x4
   820                           
   821  0024                     ___llmod@dividend:	
   822                           ; 1 bytes @ 0x4
   823                           
   824                           
   825                           ; 4 bytes @ 0x4
   826  0024                     	ds	1
   827  0025                     __tdiv_to_l_@exp1:	
   828  0025                     __div_to_l_@exp1:	
   829                           ; 1 bytes @ 0x5
   830                           
   831                           
   832                           ; 1 bytes @ 0x5
   833  0025                     	ds	2
   834  0027                     ___fttol@sign1:	
   835                           
   836                           ; 1 bytes @ 0x7
   837  0027                     	ds	1
   838  0028                     ___fttol@lval:	
   839                           
   840                           ; 4 bytes @ 0x8
   841  0028                     	ds	4
   842  002C                     ___fttol@exp1:	
   843                           
   844                           ; 1 bytes @ 0xC
   845  002C                     	ds	1
   846  002D                     ?___ftmul:	
   847  002D                     ___ftmul@f1:	
   848                           ; 3 bytes @ 0xD
   849                           
   850                           
   851                           ; 3 bytes @ 0xD
   852  002D                     	ds	3
   853  0030                     ___ftmul@f2:	
   854                           
   855                           ; 3 bytes @ 0x10
   856  0030                     	ds	3
   857  0033                     ??___ftmul:	
   858                           
   859                           ; 0 bytes @ 0x13
   860  0033                     	ds	3
   861  0036                     ___ftmul@exp:	
   862                           
   863                           ; 1 bytes @ 0x16
   864  0036                     	ds	1
   865  0037                     ___ftmul@f3_as_product:	
   866                           
   867                           ; 3 bytes @ 0x17
   868  0037                     	ds	3
   869  003A                     ___ftmul@cntr:	
   870                           
   871                           ; 1 bytes @ 0x1A
   872  003A                     	ds	1
   873  003B                     ___ftmul@sign:	
   874                           
   875                           ; 1 bytes @ 0x1B
   876  003B                     	ds	1
   877  003C                     ?_scale:	
   878  003C                     ?___ftadd:	
   879                           ; 3 bytes @ 0x1C
   880                           
   881  003C                     ___ftadd@f1:	
   882                           ; 3 bytes @ 0x1C
   883                           
   884                           
   885                           ; 3 bytes @ 0x1C
   886  003C                     	ds	3
   887  003F                     ??_scale:	
   888  003F                     ___ftadd@f2:	
   889                           ; 0 bytes @ 0x1F
   890                           
   891                           
   892                           ; 3 bytes @ 0x1F
   893  003F                     	ds	3
   894  0042                     ??___ftadd:	
   895                           
   896                           ; 0 bytes @ 0x22
   897  0042                     	ds	1
   898  0043                     _scale$2943:	
   899                           
   900                           ; 3 bytes @ 0x23
   901  0043                     	ds	2
   902  0045                     ___ftadd@sign:	
   903                           
   904                           ; 1 bytes @ 0x25
   905  0045                     	ds	1
   906  0046                     scale@scl:	
   907  0046                     ___ftadd@exp2:	
   908                           ; 1 bytes @ 0x26
   909                           
   910                           
   911                           ; 1 bytes @ 0x26
   912  0046                     	ds	1
   913  0047                     ___ftadd@exp1:	
   914                           
   915                           ; 1 bytes @ 0x27
   916  0047                     	ds	1
   917  0048                     ?_fround:	
   918  0048                     ?___ftsub:	
   919                           ; 3 bytes @ 0x28
   920                           
   921  0048                     ___ftsub@f2:	
   922                           ; 3 bytes @ 0x28
   923                           
   924                           
   925                           ; 3 bytes @ 0x28
   926  0048                     	ds	3
   927  004B                     ___ftsub@f1:	
   928  004B                     _fround$2942:	
   929                           ; 3 bytes @ 0x2B
   930                           
   931                           
   932                           ; 3 bytes @ 0x2B
   933  004B                     	ds	3
   934  004E                     _fround$2941:	
   935                           
   936                           ; 3 bytes @ 0x2E
   937  004E                     	ds	3
   938  0051                     fround@prec:	
   939                           
   940                           ; 1 bytes @ 0x31
   941  0051                     	ds	1
   942  0052                     ?_sprintf:	
   943  0052                     sprintf@f:	
   944                           ; 2 bytes @ 0x32
   945                           
   946                           
   947                           ; 1 bytes @ 0x32
   948  0052                     	ds	4
   949  0056                     ??_sprintf:	
   950                           
   951                           ; 0 bytes @ 0x36
   952  0056                     	ds	5
   953  005B                     ??_main:	
   954                           
   955                           ; 0 bytes @ 0x3B
   956  005B                     	ds	1
   957                           
   958                           	psect	maintext
   959  09A0                     __pmaintext:	
   960 ;;Data sizes: Strings 67, constant 118, data 0, bss 10, persistent 0 stack 0
   961 ;;Auto spaces:   Size  Autos    Used
   962 ;; COMMON          14     14      14
   963 ;; BANK0           80     60      60
   964 ;; BANK1           80     48      58
   965 ;; BANK3           96      0       0
   966 ;; BANK2           96      0       0
   967 ;;
   968 ;; Pointer list with targets:
   969 ;; ?___ftpack	float  size(1) Largest target is 5
   970 ;;		 -> carac(BANK1[5]), 
   971 ;;
   972 ;; ?___lldiv	unsigned long  size(1) Largest target is 0
   973 ;;
   974 ;; ?___llmod	unsigned long  size(1) Largest target is 5
   975 ;;		 -> carac(BANK1[5]), 
   976 ;;
   977 ;; ?___ftsub	float  size(1) Largest target is 0
   978 ;;
   979 ;; ?___lltoft	float  size(1) Largest target is 0
   980 ;;
   981 ;; ?__tdiv_to_l_	unsigned long  size(1) Largest target is 0
   982 ;;
   983 ;; ?__div_to_l_	unsigned long  size(1) Largest target is 0
   984 ;;
   985 ;; ?___fttol	long  size(1) Largest target is 5
   986 ;;		 -> carac(BANK1[5]), 
   987 ;;
   988 ;; ?___ftadd	float  size(1) Largest target is 5
   989 ;;		 -> carac(BANK1[5]), 
   990 ;;
   991 ;; ?___ftneg	float  size(1) Largest target is 5
   992 ;;		 -> carac(BANK1[5]), 
   993 ;;
   994 ;; ?___awmod	int  size(2) Largest target is 40
   995 ;;		 -> dpowers(CODE[40]), carac(BANK1[5]), 
   996 ;;
   997 ;; ?___awdiv	int  size(1) Largest target is 0
   998 ;;
   999 ;; ?_scale	int  size(1) Largest target is 0
  1000 ;;
  1001 ;; ?___wmul	unsigned int  size(1) Largest target is 0
  1002 ;;
  1003 ;; ?_fround	unsigned int  size(1) Largest target is 0
  1004 ;;
  1005 ;; ?___ftmul	float  size(1) Largest target is 0
  1006 ;;
  1007 ;; ?___awtoft	float  size(1) Largest target is 0
  1008 ;;
  1009 ;; sprintf@_val._cp	PTR const unsigned char  size(2) Largest target is 7
  1010 ;;		 -> STR_11(CODE[7]), carac(BANK1[5]), 
  1011 ;;
  1012 ;; sprintf@f	PTR const unsigned char  size(1) Largest target is 15
  1013 ;;		 -> STR_10(CODE[11]), STR_8(CODE[6]), STR_7(CODE[13]), STR_5(CODE[11]), 
  1014 ;;		 -> STR_3(CODE[6]), STR_1(CODE[15]), 
  1015 ;;
  1016 ;; sprintf@sp	PTR unsigned char  size(1) Largest target is 15
  1017 ;;		 -> carac(BANK1[5]), main@buffer(BANK1[15]), 
  1018 ;;
  1019 ;; ?_sprintf	int  size(1) Largest target is 5
  1020 ;;		 -> carac(BANK1[5]), 
  1021 ;;
  1022 ;; sprintf@ap	PTR void [1] size(1) Largest target is 2
  1023 ;;		 -> ?_sprintf(BANK0[2]), 
  1024 ;;
  1025 ;; S1936$_cp	PTR const unsigned char  size(2) Largest target is 7
  1026 ;;		 -> STR_11(CODE[7]), carac(BANK1[5]), 
  1027 ;;
  1028 ;; _val._str._cp	PTR const unsigned char  size(2) Largest target is 7
  1029 ;;		 -> STR_11(CODE[7]), carac(BANK1[5]), 
  1030 ;;
  1031 ;; lcd_puts@s	PTR const unsigned char  size(2) Largest target is 15
  1032 ;;		 -> STR_9(CODE[4]), STR_6(CODE[11]), STR_4(CODE[4]), carac(BANK1[5]), 
  1033 ;;		 -> STR_2(CODE[15]), 
  1034 ;;
  1035 ;; pa	PTR unsigned char  size(1) Largest target is 1
  1036 ;;		 -> PORTA(BITSFR0[1]), 
  1037 ;;
  1038 ;;
  1039 ;; Critical Paths under _main in COMMON
  1040 ;;
  1041 ;;   _sprintf->___awdiv
  1042 ;;   _sprintf->__div_to_l_
  1043 ;;   _sprintf->___llmod
  1044 ;;   _lcd_goto->_lcd_write
  1045 ;;   _lcd_puts->_lcd_write
  1046 ;;   _lcd_clear->_lcd_write
  1047 ;;   _scale->___awdiv
  1048 ;;   _lcd_write->_pause
  1049 ;;   _I2C_EEOUT->_pause
  1050 ;;   ___lltoft->___ftpack
  1051 ;;   ___awtoft->___ftpack
  1052 ;;   ___ftmul->___awdiv
  1053 ;;   _I2C_EEIN->_i2c_write
  1054 ;;   ___llmod->___lldiv
  1055 ;;   ___awdiv->___awmod
  1056 ;;   ___fttol->___awdiv
  1057 ;;   ___lbdiv->___lbmod
  1058 ;;   ___bmul->___lbdiv
  1059 ;;
  1060 ;; Critical Paths under _main in BANK0
  1061 ;;
  1062 ;;   _main->_sprintf
  1063 ;;   _sprintf->_fround
  1064 ;;   ___ftsub->___ftadd
  1065 ;;   _scale->___ftmul
  1066 ;;   _fround->___ftadd
  1067 ;;   ___ftmul->___fttol
  1068 ;;   ___ftadd->___ftmul
  1069 ;;
  1070 ;; Critical Paths under _main in BANK1
  1071 ;;
  1072 ;;   _main->_sprintf
  1073 ;;
  1074 ;; Critical Paths under _main in BANK3
  1075 ;;
  1076 ;;   None.
  1077 ;;
  1078 ;; Critical Paths under _main in BANK2
  1079 ;;
  1080 ;;   None.
  1081 ;;
  1082 ;;Main: autosize = 0, tempsize = 1, incstack = 0, save=0
  1083 ;;
  1084 ;;
  1085 ;;Call Graph Tables:
  1086 ;;
  1087 ;; ---------------------------------------------------------------------------------
  1088 ;; (Depth) Function   	        Calls       Base Space   Used Autos Params    Refs
  1089 ;; ---------------------------------------------------------------------------------
  1090 ;; (0) _main                                                38    38      0   13223
  1091 ;;                                             59 BANK0      1     1      0
  1092 ;;                                             25 BANK1     23    23      0
  1093 ;;                              _pause
  1094 ;;                          _lcd_write
  1095 ;;                          _lcd_clear
  1096 ;;                              _putch
  1097 ;;                            _sprintf
  1098 ;;                           _lcd_goto
  1099 ;;                           _lcd_puts
  1100 ;;                           _i2c_init
  1101 ;;                           ___awtoft
  1102 ;;                            ___ftmul
  1103 ;;                          _I2C_EEOUT
  1104 ;;                           _I2C_EEIN
  1105 ;; ---------------------------------------------------------------------------------
  1106 ;; (1) _sprintf                                             38    34      4   10852
  1107 ;;                                             50 BANK0      9     5      4
  1108 ;;                                              0 BANK1     25    25      0
  1109 ;;                            _isdigit
  1110 ;;                             ___wmul
  1111 ;;                             ___ftge
  1112 ;;                            ___ftneg
  1113 ;;                            ___awdiv
  1114 ;;                              _scale
  1115 ;;                            ___ftmul
  1116 ;;                             _fround
  1117 ;;                            ___ftadd
  1118 ;;                            ___fttol
  1119 ;;                         __div_to_l_
  1120 ;;                        __tdiv_to_l_
  1121 ;;                           ___lltoft
  1122 ;;                            ___ftsub
  1123 ;;                            ___lldiv
  1124 ;;                            ___llmod
  1125 ;; ---------------------------------------------------------------------------------
  1126 ;; (1) _lcd_goto                                             1     1      0     112
  1127 ;;                                              5 COMMON     1     1      0
  1128 ;;                          _lcd_write
  1129 ;; ---------------------------------------------------------------------------------
  1130 ;; (1) _lcd_puts                                             2     0      2     135
  1131 ;;                                              5 COMMON     2     0      2
  1132 ;;                          _lcd_write
  1133 ;; ---------------------------------------------------------------------------------
  1134 ;; (1) _lcd_clear                                            0     0      0     136
  1135 ;;                          _lcd_write
  1136 ;;                              _pause
  1137 ;; ---------------------------------------------------------------------------------
  1138 ;; (2) ___ftsub                                              6     0      6    1094
  1139 ;;                                             40 BANK0      6     0      6
  1140 ;;                            ___ftadd
  1141 ;;                           ___lltoft (ARG)
  1142 ;; ---------------------------------------------------------------------------------
  1143 ;; (2) _scale                                               14    11      3    1688
  1144 ;;                                             28 BANK0     11     8      3
  1145 ;;                            ___awmod
  1146 ;;                            ___awdiv
  1147 ;;                            ___ftmul
  1148 ;;                             ___bmul
  1149 ;;                            ___fttol (ARG)
  1150 ;; ---------------------------------------------------------------------------------
  1151 ;; (2) _fround                                              13    10      3    1215
  1152 ;;                                             40 BANK0     10     7      3
  1153 ;;                            ___lbmod
  1154 ;;                             ___bmul
  1155 ;;                            ___lbdiv
  1156 ;;                            ___ftmul
  1157 ;;                            ___ftadd (ARG)
  1158 ;; ---------------------------------------------------------------------------------
  1159 ;; (2) _lcd_write                                            1     1      0      90
  1160 ;;                                              4 COMMON     1     1      0
  1161 ;;                              _pause
  1162 ;; ---------------------------------------------------------------------------------
  1163 ;; (1) _I2C_EEOUT                                            3     1      2     134
  1164 ;;                                              4 COMMON     3     1      2
  1165 ;;                          _i2c_start
  1166 ;;                          _i2c_write
  1167 ;;                           _i2c_stop
  1168 ;;                              _pause
  1169 ;; ---------------------------------------------------------------------------------
  1170 ;; (2) ___lltoft                                             5     1      4     278
  1171 ;;                                              8 COMMON     5     1      4
  1172 ;;                           ___ftpack
  1173 ;; ---------------------------------------------------------------------------------
  1174 ;; (1) ___awtoft                                             4     1      3     300
  1175 ;;                                              8 COMMON     4     1      3
  1176 ;;                           ___ftpack
  1177 ;; ---------------------------------------------------------------------------------
  1178 ;; (1) ___ftmul                                             15     9      6     535
  1179 ;;                                             13 BANK0     15     9      6
  1180 ;;                           ___ftpack
  1181 ;;                           ___awtoft (ARG)
  1182 ;;                            ___fttol (ARG)
  1183 ;;                            ___awdiv (ARG)
  1184 ;;                            ___awmod (ARG)
  1185 ;;                             ___bmul (ARG)
  1186 ;;                            ___lbdiv (ARG)
  1187 ;;                            ___lbmod (ARG)
  1188 ;; ---------------------------------------------------------------------------------
  1189 ;; (3) ___ftadd                                             12     6      6    1049
  1190 ;;                                             28 BANK0     12     6      6
  1191 ;;                           ___ftpack
  1192 ;;                            ___lbmod (ARG)
  1193 ;;                             ___bmul (ARG)
  1194 ;;                            ___lbdiv (ARG)
  1195 ;;                            ___ftmul (ARG)
  1196 ;; ---------------------------------------------------------------------------------
  1197 ;; (1) _I2C_EEIN                                             3     2      1      89
  1198 ;;                                              1 COMMON     3     2      1
  1199 ;;                          _i2c_start
  1200 ;;                          _i2c_write
  1201 ;;                        _i2c_restart
  1202 ;;                           _i2c_read
  1203 ;;                           _I2C_nack
  1204 ;;                           _i2c_stop
  1205 ;; ---------------------------------------------------------------------------------
  1206 ;; (2) _pause                                                4     2      2      46
  1207 ;;                                              0 COMMON     4     2      2
  1208 ;;                           _msecbase
  1209 ;; ---------------------------------------------------------------------------------
  1210 ;; (3) ___awmod                                              6     2      4     296
  1211 ;;                                              0 COMMON     6     2      4
  1212 ;; ---------------------------------------------------------------------------------
  1213 ;; (2) ___lldiv                                             13     5      8     162
  1214 ;;                                              0 COMMON    13     5      8
  1215 ;; ---------------------------------------------------------------------------------
  1216 ;; (2) ___ftge                                               6     0      6     136
  1217 ;;                                              0 COMMON     6     0      6
  1218 ;; ---------------------------------------------------------------------------------
  1219 ;; (2) ___ftneg                                              3     0      3      45
  1220 ;;                                              0 COMMON     3     0      3
  1221 ;; ---------------------------------------------------------------------------------
  1222 ;; (2) ___llmod                                              9     1      8     159
  1223 ;;                                             13 COMMON     1     1      0
  1224 ;;                                              0 BANK0      8     0      8
  1225 ;;                            ___lldiv (ARG)
  1226 ;; ---------------------------------------------------------------------------------
  1227 ;; (3) ___awdiv                                              8     4      4     300
  1228 ;;                                              6 COMMON     8     4      4
  1229 ;;                            ___awmod (ARG)
  1230 ;; ---------------------------------------------------------------------------------
  1231 ;; (2) ___fttol                                             13     9      4     252
  1232 ;;                                              0 BANK0     13     9      4
  1233 ;;                           ___ftpack (ARG)
  1234 ;;                            ___awmod (ARG)
  1235 ;;                            ___awdiv (ARG)
  1236 ;;                             ___bmul (ARG)
  1237 ;; ---------------------------------------------------------------------------------
  1238 ;; (2) ___ftpack                                             8     3      5     209
  1239 ;;                                              0 COMMON     8     3      5
  1240 ;; ---------------------------------------------------------------------------------
  1241 ;; (3) ___lbmod                                              5     4      1     159
  1242 ;;                                              0 COMMON     5     4      1
  1243 ;; ---------------------------------------------------------------------------------
  1244 ;; (3) ___lbdiv                                              4     3      1     162
  1245 ;;                                              5 COMMON     4     3      1
  1246 ;;                            ___lbmod (ARG)
  1247 ;; ---------------------------------------------------------------------------------
  1248 ;; (2) ___wmul                                               6     2      4      92
  1249 ;;                                              0 COMMON     6     2      4
  1250 ;; ---------------------------------------------------------------------------------
  1251 ;; (3) ___bmul                                               3     2      1      68
  1252 ;;                                              9 COMMON     3     2      1
  1253 ;;                            ___lbmod (ARG)
  1254 ;;                            ___lbdiv (ARG)
  1255 ;; ---------------------------------------------------------------------------------
  1256 ;; (2) __div_to_l_                                          20    14      6     446
  1257 ;;                                              0 COMMON    14     8      6
  1258 ;;                                              0 BANK0      6     6      0
  1259 ;; ---------------------------------------------------------------------------------
  1260 ;; (2) __tdiv_to_l_                                         15     9      6     303
  1261 ;;                                              0 COMMON     9     3      6
  1262 ;;                                              0 BANK0      6     6      0
  1263 ;; ---------------------------------------------------------------------------------
  1264 ;; (2) _isdigit                                              2     2      0      68
  1265 ;;                                              0 COMMON     2     2      0
  1266 ;; ---------------------------------------------------------------------------------
  1267 ;; (1) _putch                                                1     1      0      22
  1268 ;;                                              0 COMMON     1     1      0
  1269 ;; ---------------------------------------------------------------------------------
  1270 ;; (2) _i2c_write                                            1     1      0      22
  1271 ;;                                              0 COMMON     1     1      0
  1272 ;; ---------------------------------------------------------------------------------
  1273 ;; (2) _I2C_nack                                             0     0      0       0
  1274 ;; ---------------------------------------------------------------------------------
  1275 ;; (2) _i2c_read                                             0     0      0       0
  1276 ;; ---------------------------------------------------------------------------------
  1277 ;; (2) _i2c_stop                                             0     0      0       0
  1278 ;; ---------------------------------------------------------------------------------
  1279 ;; (2) _i2c_restart                                          0     0      0       0
  1280 ;; ---------------------------------------------------------------------------------
  1281 ;; (2) _i2c_start                                            0     0      0       0
  1282 ;; ---------------------------------------------------------------------------------
  1283 ;; (1) _i2c_init                                             0     0      0       0
  1284 ;; ---------------------------------------------------------------------------------
  1285 ;; (3) _msecbase                                             0     0      0       0
  1286 ;; ---------------------------------------------------------------------------------
  1287 ;; Estimated maximum stack depth 3
  1288 ;; ---------------------------------------------------------------------------------
  1289 ;; Call Graph Graphs:
  1290 ;; _main (ROOT)
  1291 ;;   _pause
  1292 ;;     _msecbase
  1293 ;;   _lcd_write
  1294 ;;     _pause
  1295 ;;       _msecbase
  1296 ;;   _lcd_clear
  1297 ;;     _lcd_write
  1298 ;;       _pause
  1299 ;;         _msecbase
  1300 ;;     _pause
  1301 ;;       _msecbase
  1302 ;;   _putch
  1303 ;;   _sprintf
  1304 ;;     _isdigit
  1305 ;;     ___wmul
  1306 ;;     ___ftge
  1307 ;;     ___ftneg
  1308 ;;     ___awdiv
  1309 ;;       ___awmod (ARG)
  1310 ;;     _scale
  1311 ;;       ___awmod
  1312 ;;       ___awdiv
  1313 ;;         ___awmod (ARG)
  1314 ;;       ___ftmul
  1315 ;;         ___ftpack
  1316 ;;         ___awtoft (ARG)
  1317 ;;           ___ftpack
  1318 ;;         ___fttol (ARG)
  1319 ;;           ___ftpack (ARG)
  1320 ;;           ___awmod (ARG)
  1321 ;;           ___awdiv (ARG)
  1322 ;;             ___awmod (ARG)
  1323 ;;           ___bmul (ARG)
  1324 ;;             ___lbmod (ARG)
  1325 ;;             ___lbdiv (ARG)
  1326 ;;               ___lbmod (ARG)
  1327 ;;         ___awdiv (ARG)
  1328 ;;           ___awmod (ARG)
  1329 ;;         ___awmod (ARG)
  1330 ;;         ___bmul (ARG)
  1331 ;;           ___lbmod (ARG)
  1332 ;;           ___lbdiv (ARG)
  1333 ;;             ___lbmod (ARG)
  1334 ;;         ___lbdiv (ARG)
  1335 ;;           ___lbmod (ARG)
  1336 ;;         ___lbmod (ARG)
  1337 ;;       ___bmul
  1338 ;;         ___lbmod (ARG)
  1339 ;;         ___lbdiv (ARG)
  1340 ;;           ___lbmod (ARG)
  1341 ;;       ___fttol (ARG)
  1342 ;;         ___ftpack (ARG)
  1343 ;;         ___awmod (ARG)
  1344 ;;         ___awdiv (ARG)
  1345 ;;           ___awmod (ARG)
  1346 ;;         ___bmul (ARG)
  1347 ;;           ___lbmod (ARG)
  1348 ;;           ___lbdiv (ARG)
  1349 ;;             ___lbmod (ARG)
  1350 ;;     ___ftmul
  1351 ;;       ___ftpack
  1352 ;;       ___awtoft (ARG)
  1353 ;;         ___ftpack
  1354 ;;       ___fttol (ARG)
  1355 ;;         ___ftpack (ARG)
  1356 ;;         ___awmod (ARG)
  1357 ;;         ___awdiv (ARG)
  1358 ;;           ___awmod (ARG)
  1359 ;;         ___bmul (ARG)
  1360 ;;           ___lbmod (ARG)
  1361 ;;           ___lbdiv (ARG)
  1362 ;;             ___lbmod (ARG)
  1363 ;;       ___awdiv (ARG)
  1364 ;;         ___awmod (ARG)
  1365 ;;       ___awmod (ARG)
  1366 ;;       ___bmul (ARG)
  1367 ;;         ___lbmod (ARG)
  1368 ;;         ___lbdiv (ARG)
  1369 ;;           ___lbmod (ARG)
  1370 ;;       ___lbdiv (ARG)
  1371 ;;         ___lbmod (ARG)
  1372 ;;       ___lbmod (ARG)
  1373 ;;     _fround
  1374 ;;       ___lbmod
  1375 ;;       ___bmul
  1376 ;;         ___lbmod (ARG)
  1377 ;;         ___lbdiv (ARG)
  1378 ;;           ___lbmod (ARG)
  1379 ;;       ___lbdiv
  1380 ;;         ___lbmod (ARG)
  1381 ;;       ___ftmul
  1382 ;;         ___ftpack
  1383 ;;         ___awtoft (ARG)
  1384 ;;           ___ftpack
  1385 ;;         ___fttol (ARG)
  1386 ;;           ___ftpack (ARG)
  1387 ;;           ___awmod (ARG)
  1388 ;;           ___awdiv (ARG)
  1389 ;;             ___awmod (ARG)
  1390 ;;           ___bmul (ARG)
  1391 ;;             ___lbmod (ARG)
  1392 ;;             ___lbdiv (ARG)
  1393 ;;               ___lbmod (ARG)
  1394 ;;         ___awdiv (ARG)
  1395 ;;           ___awmod (ARG)
  1396 ;;         ___awmod (ARG)
  1397 ;;         ___bmul (ARG)
  1398 ;;           ___lbmod (ARG)
  1399 ;;           ___lbdiv (ARG)
  1400 ;;             ___lbmod (ARG)
  1401 ;;         ___lbdiv (ARG)
  1402 ;;           ___lbmod (ARG)
  1403 ;;         ___lbmod (ARG)
  1404 ;;       ___ftadd (ARG)
  1405 ;;         ___ftpack
  1406 ;;         ___lbmod (ARG)
  1407 ;;         ___bmul (ARG)
  1408 ;;           ___lbmod (ARG)
  1409 ;;           ___lbdiv (ARG)
  1410 ;;             ___lbmod (ARG)
  1411 ;;         ___lbdiv (ARG)
  1412 ;;           ___lbmod (ARG)
  1413 ;;         ___ftmul (ARG)
  1414 ;;           ___ftpack
  1415 ;;           ___awtoft (ARG)
  1416 ;;             ___ftpack
  1417 ;;           ___fttol (ARG)
  1418 ;;             ___ftpack (ARG)
  1419 ;;             ___awmod (ARG)
  1420 ;;             ___awdiv (ARG)
  1421 ;;               ___awmod (ARG)
  1422 ;;             ___bmul (ARG)
  1423 ;;               ___lbmod (ARG)
  1424 ;;               ___lbdiv (ARG)
  1425 ;;                 ___lbmod (ARG)
  1426 ;;           ___awdiv (ARG)
  1427 ;;             ___awmod (ARG)
  1428 ;;           ___awmod (ARG)
  1429 ;;           ___bmul (ARG)
  1430 ;;             ___lbmod (ARG)
  1431 ;;             ___lbdiv (ARG)
  1432 ;;               ___lbmod (ARG)
  1433 ;;           ___lbdiv (ARG)
  1434 ;;             ___lbmod (ARG)
  1435 ;;           ___lbmod (ARG)
  1436 ;;     ___ftadd
  1437 ;;       ___ftpack
  1438 ;;       ___lbmod (ARG)
  1439 ;;       ___bmul (ARG)
  1440 ;;         ___lbmod (ARG)
  1441 ;;         ___lbdiv (ARG)
  1442 ;;           ___lbmod (ARG)
  1443 ;;       ___lbdiv (ARG)
  1444 ;;         ___lbmod (ARG)
  1445 ;;       ___ftmul (ARG)
  1446 ;;         ___ftpack
  1447 ;;         ___awtoft (ARG)
  1448 ;;           ___ftpack
  1449 ;;         ___fttol (ARG)
  1450 ;;           ___ftpack (ARG)
  1451 ;;           ___awmod (ARG)
  1452 ;;           ___awdiv (ARG)
  1453 ;;             ___awmod (ARG)
  1454 ;;           ___bmul (ARG)
  1455 ;;             ___lbmod (ARG)
  1456 ;;             ___lbdiv (ARG)
  1457 ;;               ___lbmod (ARG)
  1458 ;;         ___awdiv (ARG)
  1459 ;;           ___awmod (ARG)
  1460 ;;         ___awmod (ARG)
  1461 ;;         ___bmul (ARG)
  1462 ;;           ___lbmod (ARG)
  1463 ;;           ___lbdiv (ARG)
  1464 ;;             ___lbmod (ARG)
  1465 ;;         ___lbdiv (ARG)
  1466 ;;           ___lbmod (ARG)
  1467 ;;         ___lbmod (ARG)
  1468 ;;     ___fttol
  1469 ;;       ___ftpack (ARG)
  1470 ;;       ___awmod (ARG)
  1471 ;;       ___awdiv (ARG)
  1472 ;;         ___awmod (ARG)
  1473 ;;       ___bmul (ARG)
  1474 ;;         ___lbmod (ARG)
  1475 ;;         ___lbdiv (ARG)
  1476 ;;           ___lbmod (ARG)
  1477 ;;     __div_to_l_
  1478 ;;     __tdiv_to_l_
  1479 ;;     ___lltoft
  1480 ;;       ___ftpack
  1481 ;;     ___ftsub
  1482 ;;       ___ftadd
  1483 ;;         ___ftpack
  1484 ;;         ___lbmod (ARG)
  1485 ;;         ___bmul (ARG)
  1486 ;;           ___lbmod (ARG)
  1487 ;;           ___lbdiv (ARG)
  1488 ;;             ___lbmod (ARG)
  1489 ;;         ___lbdiv (ARG)
  1490 ;;           ___lbmod (ARG)
  1491 ;;         ___ftmul (ARG)
  1492 ;;           ___ftpack
  1493 ;;           ___awtoft (ARG)
  1494 ;;             ___ftpack
  1495 ;;           ___fttol (ARG)
  1496 ;;             ___ftpack (ARG)
  1497 ;;             ___awmod (ARG)
  1498 ;;             ___awdiv (ARG)
  1499 ;;               ___awmod (ARG)
  1500 ;;             ___bmul (ARG)
  1501 ;;               ___lbmod (ARG)
  1502 ;;               ___lbdiv (ARG)
  1503 ;;                 ___lbmod (ARG)
  1504 ;;           ___awdiv (ARG)
  1505 ;;             ___awmod (ARG)
  1506 ;;           ___awmod (ARG)
  1507 ;;           ___bmul (ARG)
  1508 ;;             ___lbmod (ARG)
  1509 ;;             ___lbdiv (ARG)
  1510 ;;               ___lbmod (ARG)
  1511 ;;           ___lbdiv (ARG)
  1512 ;;             ___lbmod (ARG)
  1513 ;;           ___lbmod (ARG)
  1514 ;;       ___lltoft (ARG)
  1515 ;;         ___ftpack
  1516 ;;     ___lldiv
  1517 ;;     ___llmod
  1518 ;;       ___lldiv (ARG)
  1519 ;;   _lcd_goto
  1520 ;;     _lcd_write
  1521 ;;       _pause
  1522 ;;         _msecbase
  1523 ;;   _lcd_puts
  1524 ;;     _lcd_write
  1525 ;;       _pause
  1526 ;;         _msecbase
  1527 ;;   _i2c_init
  1528 ;;   ___awtoft
  1529 ;;     ___ftpack
  1530 ;;   ___ftmul
  1531 ;;     ___ftpack
  1532 ;;     ___awtoft (ARG)
  1533 ;;       ___ftpack
  1534 ;;     ___fttol (ARG)
  1535 ;;       ___ftpack (ARG)
  1536 ;;       ___awmod (ARG)
  1537 ;;       ___awdiv (ARG)
  1538 ;;         ___awmod (ARG)
  1539 ;;       ___bmul (ARG)
  1540 ;;         ___lbmod (ARG)
  1541 ;;         ___lbdiv (ARG)
  1542 ;;           ___lbmod (ARG)
  1543 ;;     ___awdiv (ARG)
  1544 ;;       ___awmod (ARG)
  1545 ;;     ___awmod (ARG)
  1546 ;;     ___bmul (ARG)
  1547 ;;       ___lbmod (ARG)
  1548 ;;       ___lbdiv (ARG)
  1549 ;;         ___lbmod (ARG)
  1550 ;;     ___lbdiv (ARG)
  1551 ;;       ___lbmod (ARG)
  1552 ;;     ___lbmod (ARG)
  1553 ;;   _I2C_EEOUT
  1554 ;;     _i2c_start
  1555 ;;     _i2c_write
  1556 ;;     _i2c_stop
  1557 ;;     _pause
  1558 ;;       _msecbase
  1559 ;;   _I2C_EEIN
  1560 ;;     _i2c_start
  1561 ;;     _i2c_write
  1562 ;;     _i2c_restart
  1563 ;;     _i2c_read
  1564 ;;     _I2C_nack
  1565 ;;     _i2c_stop
  1566 ;;
  1567 ;; Address spaces:
  1568 ;;Name               Size   Autos  Total    Cost      Usage
  1569 ;;BITCOMMON            E      0       0       0        0.0%
  1570 ;;EEDATA             100      0       0       0        0.0%
  1571 ;;NULL                 0      0       0       0        0.0%
  1572 ;;CODE                 0      0       0       0        0.0%
  1573 ;;COMMON               E      E       E       1      100.0%
  1574 ;;BITSFR0              0      0       0       1        0.0%
  1575 ;;SFR0                 0      0       0       1        0.0%
  1576 ;;BITSFR1              0      0       0       2        0.0%
  1577 ;;SFR1                 0      0       0       2        0.0%
  1578 ;;STACK                0      0       4       2        0.0%
  1579 ;;ABS                  0      0      84       3        0.0%
  1580 ;;BITBANK0            50      0       0       4        0.0%
  1581 ;;BITSFR3              0      0       0       4        0.0%
  1582 ;;SFR3                 0      0       0       4        0.0%
  1583 ;;BANK0               50     3C      3C       5       75.0%
  1584 ;;BITSFR2              0      0       0       5        0.0%
  1585 ;;SFR2                 0      0       0       5        0.0%
  1586 ;;BITBANK1            50      0       0       6        0.0%
  1587 ;;BANK1               50     30      3A       7       72.5%
  1588 ;;BITBANK3            60      0       0       8        0.0%
  1589 ;;BANK3               60      0       0       9        0.0%
  1590 ;;BITBANK2            60      0       0      10        0.0%
  1591 ;;BANK2               60      0       0      11        0.0%
  1592 ;;DATA                 0      0      88      12        0.0%
  1593                           
  1594                           
  1595 ;; *************** function _main *****************
  1596 ;; Defined at:
  1597 ;;		line 234 in file "C:\Users\petir\Documents\PIC_PROG\C_EEPROM-I2C\eeprom_i2c.c"
  1598 ;; Parameters:    Size  Location     Type
  1599 ;;		None
  1600 ;; Auto vars:     Size  Location     Type
  1601 ;;  x               1   46[BANK1 ] unsigned char 
  1602 ;;  x               1   44[BANK1 ] unsigned char 
  1603 ;;  x               1   45[BANK1 ] unsigned char 
  1604 ;;  x               1   43[BANK1 ] unsigned char 
  1605 ;;  i               2   41[BANK1 ] int 
  1606 ;;  buffer         15   25[BANK1 ] unsigned char [15]
  1607 ;;  uni             2    0        unsigned int 
  1608 ;;  cen             2    0        unsigned int 
  1609 ;;  dec             2    0        unsigned int 
  1610 ;;  mil             2    0        unsigned int 
  1611 ;;  B2              2    0        unsigned int 
  1612 ;;  B1              2    0        unsigned int 
  1613 ;;  cnt2            1   47[BANK1 ] unsigned char 
  1614 ;;  cnt1            1   40[BANK1 ] unsigned char 
  1615 ;;  char_pwm        1    0        unsigned char 
  1616 ;;  char_recibid    1    0        unsigned char 
  1617 ;; Return value:  Size  Location     Type
  1618 ;;		None               void
  1619 ;; Registers used:
  1620 ;;		wreg, fsr0l, fsr0h, status,2, status,0, btemp+1, pclath, cstack
  1621 ;; Tracked objects:
  1622 ;;		On entry : 17F/0
  1623 ;;		On exit  : 160/20
  1624 ;;		Unchanged: FFE00/0
  1625 ;; Data sizes:     COMMON   BANK0   BANK1   BANK3   BANK2
  1626 ;;      Params:         0       0       0       0       0
  1627 ;;      Locals:         0       0      23       0       0
  1628 ;;      Temps:          0       1       0       0       0
  1629 ;;      Totals:         0       1      23       0       0
  1630 ;;Total ram usage:       24 bytes
  1631 ;; Hardware stack levels required when called:    4
  1632 ;; This function calls:
  1633 ;;		_pause
  1634 ;;		_lcd_write
  1635 ;;		_lcd_clear
  1636 ;;		_putch
  1637 ;;		_sprintf
  1638 ;;		_lcd_goto
  1639 ;;		_lcd_puts
  1640 ;;		_i2c_init
  1641 ;;		___awtoft
  1642 ;;		___ftmul
  1643 ;;		_I2C_EEOUT
  1644 ;;		_I2C_EEIN
  1645 ;; This function is called by:
  1646 ;;		Startup code after reset
  1647 ;; This function uses a non-reentrant model
  1648 ;;
  1649  09A0                     _main:	
  1650                           
  1651                           ;eeprom_i2c.c: 235: ANSEL=0x00;
  1652                           
  1653                           ; Regs used in _main: [wreg-fsr0h+status,2+status,0+btemp+1+pclath+cstack]
  1654  09A0  1683               	bsf	3,5	;RP0=1, select bank3
  1655  09A1  1703               	bsf	3,6	;RP1=1, select bank3
  1656  09A2  0188               	clrf	8	;volatile
  1657                           
  1658                           ;eeprom_i2c.c: 236: ANSELH=0;
  1659  09A3  0189               	clrf	9	;volatile
  1660                           
  1661                           ;eeprom_i2c.c: 237: OSCCON=0xC0;
  1662  09A4  30C0               	movlw	192
  1663  09A5  1303               	bcf	3,6	;RP1=0, select bank1
  1664  09A6  008F               	movwf	15	;volatile
  1665                           
  1666                           ;eeprom_i2c.c: 238: TRISA=3;
  1667  09A7  3003               	movlw	3
  1668  09A8  0085               	movwf	5	;volatile
  1669                           
  1670                           ;eeprom_i2c.c: 239: TRISB=0;
  1671  09A9  0186               	clrf	6	;volatile
  1672                           
  1673                           ;eeprom_i2c.c: 240: TRISC=6;
  1674  09AA  3006               	movlw	6
  1675  09AB  0087               	movwf	7	;volatile
  1676                           
  1677                           ;eeprom_i2c.c: 241: TRISD=0;
  1678  09AC  0188               	clrf	8	;volatile
  1679                           
  1680                           ;eeprom_i2c.c: 242: TRISE=0;
  1681  09AD  0189               	clrf	9	;volatile
  1682                           
  1683                           ;eeprom_i2c.c: 244: PR2=0xFC;
  1684  09AE  30FC               	movlw	252
  1685  09AF  0092               	movwf	18	;volatile
  1686                           
  1687                           ;eeprom_i2c.c: 245: CCP2CON=0x0C;
  1688  09B0  300C               	movlw	12
  1689  09B1  1283               	bcf	3,5	;RP0=0, select bank0
  1690  09B2  009D               	movwf	29	;volatile
  1691                           
  1692                           ;eeprom_i2c.c: 246: CCP1CON=0x0C;
  1693  09B3  0097               	movwf	23	;volatile
  1694                           
  1695                           ;eeprom_i2c.c: 247: CCPR1L=0x80;
  1696  09B4  3080               	movlw	128
  1697  09B5  0095               	movwf	21	;volatile
  1698                           
  1699                           ;eeprom_i2c.c: 248: CCPR2L=0x80;
  1700  09B6  009B               	movwf	27	;volatile
  1701                           
  1702                           ;eeprom_i2c.c: 249: PIR1=0;
  1703  09B7  018C               	clrf	12	;volatile
  1704                           
  1705                           ;eeprom_i2c.c: 250: T2CON=0X07;
  1706  09B8  3007               	movlw	7
  1707  09B9  0092               	movwf	18	;volatile
  1708  09BA                     l6186:	
  1709                           ;eeprom_i2c.c: 251: while(PIR1);
  1710                           
  1711  09BA  088C               	movf	12,f
  1712  09BB  1D03               	skipz
  1713  09BC  29BA               	goto	l6186
  1714                           
  1715                           ;eeprom_i2c.c: 252: TRISC1=0;
  1716  09BD  1683               	bsf	3,5	;RP0=1, select bank1
  1717  09BE  1087               	bcf	7,1
  1718                           
  1719                           ;eeprom_i2c.c: 253: TRISC2=0;
  1720  09BF  1107               	bcf	7,2
  1721                           
  1722                           ;eeprom_i2c.c: 254: RA7=0;
  1723  09C0  1283               	bcf	3,5	;RP0=0, select bank0
  1724  09C1  300F               	movlw	15
  1725  09C2  1385               	bcf	5,7
  1726                           
  1727                           ;eeprom_i2c.c: 255: RA6=0;
  1728  09C3  1305               	bcf	5,6
  1729                           
  1730                           ;eeprom_i2c.c: 256: RA4=0;
  1731  09C4  1205               	bcf	5,4
  1732                           
  1733                           ;eeprom_i2c.c: 257: pause(15);
  1734  09C5  00F0               	movwf	?_pause
  1735  09C6  01F1               	clrf	?_pause+1
  1736  09C7  160A  118A  2660   	fcall	_pause
      +       120A  158A         
  1737                           
  1738                           ;eeprom_i2c.c: 258: PORTD=init_value;
  1739  09CC  3003               	movlw	3
  1740  09CD  1283               	bcf	3,5	;RP0=0, select bank0
  1741  09CE  1303               	bcf	3,6	;RP1=0, select bank0
  1742  09CF  0088               	movwf	8	;volatile
  1743  09D0  300A               	movlw	10
  1744                           
  1745                           ;eeprom_i2c.c: 259: ((RA6=1),(RA6=0));
  1746  09D1  1705               	bsf	5,6
  1747  09D2  1305               	bcf	5,6
  1748                           
  1749                           ;eeprom_i2c.c: 260: pause(10);
  1750  09D3  00F0               	movwf	?_pause
  1751  09D4  01F1               	clrf	?_pause+1
  1752  09D5  160A  118A  2660   	fcall	_pause
      +       120A  158A         
  1753                           
  1754                           ;eeprom_i2c.c: 261: ((RA6=1),(RA6=0));
  1755  09DA  1283               	bcf	3,5	;RP0=0, select bank0
  1756  09DB  1303               	bcf	3,6	;RP1=0, select bank0
  1757  09DC  300A               	movlw	10
  1758  09DD  1705               	bsf	5,6
  1759  09DE  1305               	bcf	5,6
  1760                           
  1761                           ;eeprom_i2c.c: 262: pause(10);
  1762  09DF  00F0               	movwf	?_pause
  1763  09E0  01F1               	clrf	?_pause+1
  1764  09E1  160A  118A  2660   	fcall	_pause
      +       120A  158A         
  1765                           
  1766                           ;eeprom_i2c.c: 263: ((RA6=1),(RA6=0));
  1767  09E6  1283               	bcf	3,5	;RP0=0, select bank0
  1768  09E7  1303               	bcf	3,6	;RP1=0, select bank0
  1769  09E8  300A               	movlw	10
  1770  09E9  1705               	bsf	5,6
  1771  09EA  1305               	bcf	5,6
  1772                           
  1773                           ;eeprom_i2c.c: 264: pause(10);
  1774  09EB  00F0               	movwf	?_pause
  1775  09EC  01F1               	clrf	?_pause+1
  1776  09ED  160A  118A  2660   	fcall	_pause
      +       120A  158A         
  1777                           
  1778                           ;eeprom_i2c.c: 265: PORTD=2;
  1779  09F2  3002               	movlw	2
  1780  09F3  1283               	bcf	3,5	;RP0=0, select bank0
  1781  09F4  1303               	bcf	3,6	;RP1=0, select bank0
  1782  09F5  0088               	movwf	8	;volatile
  1783  09F6  3028               	movlw	40
  1784                           
  1785                           ;eeprom_i2c.c: 266: ((RA6=1),(RA6=0));
  1786  09F7  1705               	bsf	5,6
  1787  09F8  1305               	bcf	5,6
  1788                           
  1789                           ;eeprom_i2c.c: 267: lcd_write(0x28);
  1790  09F9  160A  118A  264E   	fcall	_lcd_write
      +       120A  158A         
  1791                           
  1792                           ;eeprom_i2c.c: 268: lcd_write(0xC);
  1793  09FE  300C               	movlw	12
  1794  09FF  160A  118A  264E   	fcall	_lcd_write
      +       120A  158A         
  1795                           
  1796                           ;eeprom_i2c.c: 269: lcd_clear();
  1797  0A04  160A  118A  2627   	fcall	_lcd_clear
      +       120A  158A         
  1798                           
  1799                           ;eeprom_i2c.c: 270: lcd_write(0x06);
  1800  0A09  3006               	movlw	6
  1801  0A0A  160A  118A  264E   	fcall	_lcd_write
      +       120A  158A         
  1802                           
  1803                           ;eeprom_i2c.c: 273: TRISC7=1;
  1804  0A0F  1683               	bsf	3,5	;RP0=1, select bank1
  1805  0A10  3070               	movlw	112
  1806  0A11  1787               	bsf	7,7
  1807  0A12  1307               	bcf	7,6
  1808                           
  1809                           ;eeprom_i2c.c: 275: OSCCON=0x70;
  1810  0A13  008F               	movwf	15	;volatile
  1811                           
  1812                           ;eeprom_i2c.c: 276: SPBRG=12;
  1813  0A14  300C               	movlw	12
  1814  0A15  0099               	movwf	25	;volatile
  1815                           
  1816                           ;eeprom_i2c.c: 277: RCSTA=0x90;
  1817  0A16  3090               	movlw	144
  1818  0A17  1283               	bcf	3,5	;RP0=0, select bank0
  1819  0A18  0098               	movwf	24	;volatile
  1820                           
  1821                           ;eeprom_i2c.c: 278: TXSTA=0x20;
  1822  0A19  3020               	movlw	32
  1823  0A1A  1683               	bsf	3,5	;RP0=1, select bank1
  1824  0A1B  0098               	movwf	24	;volatile
  1825                           
  1826                           ;eeprom_i2c.c: 279: BAUDCTL=0x00;
  1827  0A1C  1703               	bsf	3,6	;RP1=1, select bank3
  1828  0A1D  0187               	clrf	7	;volatile
  1829                           
  1830                           ;eeprom_i2c.c: 280: pause(500);
  1831  0A1E  30F4               	movlw	244
  1832  0A1F  00F0               	movwf	?_pause
  1833  0A20  3001               	movlw	1
  1834  0A21  00F1               	movwf	?_pause+1
  1835  0A22  160A  118A  2660   	fcall	_pause
      +       120A  158A         
  1836                           
  1837                           ;eeprom_i2c.c: 282: PORTA=0x01;
  1838  0A27  3001               	movlw	1
  1839  0A28  1283               	bcf	3,5	;RP0=0, select bank0
  1840  0A29  1303               	bcf	3,6	;RP1=0, select bank0
  1841  0A2A  0085               	movwf	5	;volatile
  1842                           
  1843                           ;eeprom_i2c.c: 283: *pa=0xFF;
  1844  0A2B  30FF               	movlw	255
  1845  0A2C  0085               	movwf	5
  1846                           
  1847                           ;eeprom_i2c.c: 286: char char_recibido;
  1848                           ;eeprom_i2c.c: 287: char char_pwm;
  1849                           ;eeprom_i2c.c: 288: char buffer[15];
  1850                           ;eeprom_i2c.c: 290: PORTA=0x01;
  1851  0A2D  3001               	movlw	1
  1852  0A2E  0085               	movwf	5	;volatile
  1853                           
  1854                           ;eeprom_i2c.c: 291: *pa=0xFF;
  1855  0A2F  30FF               	movlw	255
  1856  0A30  0085               	movwf	5
  1857                           
  1858                           ;eeprom_i2c.c: 293: putch(0x0D);
  1859  0A31  300D               	movlw	13
  1860  0A32  120A  118A  203D   	fcall	_putch
      +       120A  158A         
  1861                           
  1862                           ;eeprom_i2c.c: 294: putch(0x0A);
  1863  0A37  300A               	movlw	10
  1864  0A38  120A  118A  203D   	fcall	_putch
      +       120A  158A         
  1865                           
  1866                           ;eeprom_i2c.c: 297: for(int i=97; i<123; i++){
  1867  0A3D  3061               	movlw	97
  1868  0A3E  1683               	bsf	3,5	;RP0=1, select bank1
  1869  0A3F  00C9               	movwf	main@i^(0+128)
  1870  0A40  01CA               	clrf	(main@i+1)^(0+128)
  1871  0A41                     l6248:	
  1872                           
  1873                           ;eeprom_i2c.c: 298: putch(i);
  1874  0A41  1683               	bsf	3,5	;RP0=1, select bank1
  1875  0A42  1303               	bcf	3,6	;RP1=0, select bank1
  1876  0A43  0849               	movf	main@i^(0+128),w
  1877  0A44  120A  118A  203D   	fcall	_putch
      +       120A  158A         
  1878                           
  1879                           ;eeprom_i2c.c: 299: pause(20);
  1880  0A49  3014               	movlw	20
  1881  0A4A  00F0               	movwf	?_pause
  1882  0A4B  01F1               	clrf	?_pause+1
  1883  0A4C  160A  118A  2660   	fcall	_pause
      +       120A  158A         
  1884  0A51  1683               	bsf	3,5	;RP0=1, select bank1
  1885  0A52  1303               	bcf	3,6	;RP1=0, select bank1
  1886  0A53  0AC9               	incf	main@i^(0+128),f
  1887  0A54  1903               	skipnz
  1888  0A55  0ACA               	incf	(main@i+1)^(0+128),f
  1889  0A56  084A               	movf	(main@i+1)^(0+128),w
  1890  0A57  3A80               	xorlw	128
  1891  0A58  00FF               	movwf	127
  1892  0A59  3080               	movlw	128
  1893  0A5A  027F               	subwf	127,w
  1894  0A5B  1D03               	skipz
  1895  0A5C  2A5F               	goto	u3605
  1896  0A5D  307B               	movlw	123
  1897  0A5E  0249               	subwf	main@i^(0+128),w
  1898  0A5F                     u3605:	
  1899  0A5F  1C03               	skipc
  1900  0A60  2A41               	goto	l6248
  1901                           
  1902                           ;eeprom_i2c.c: 300: }
  1903                           ;eeprom_i2c.c: 302: putch(0x0D);
  1904  0A61  300D               	movlw	13
  1905  0A62  120A  118A  203D   	fcall	_putch
      +       120A  158A         
  1906                           
  1907                           ;eeprom_i2c.c: 303: putch(0x0A);
  1908  0A67  300A               	movlw	10
  1909  0A68  120A  118A  203D   	fcall	_putch
      +       120A  158A         
  1910                           
  1911                           ;eeprom_i2c.c: 304: pause(100);
  1912  0A6D  3064               	movlw	100
  1913  0A6E  00F0               	movwf	?_pause
  1914  0A6F  01F1               	clrf	?_pause+1
  1915  0A70  160A  118A  2660   	fcall	_pause
      +       120A  158A         
  1916                           
  1917                           ;eeprom_i2c.c: 306: PORTB=0;
  1918  0A75  1283               	bcf	3,5	;RP0=0, select bank0
  1919  0A76  1303               	bcf	3,6	;RP1=0, select bank0
  1920  0A77  0186               	clrf	6	;volatile
  1921                           
  1922                           ;eeprom_i2c.c: 309: unsigned int B1, B2, mil, dec, cen, uni=0;
  1923  0A78  1683               	bsf	3,5	;RP0=1, select bank1
  1924  0A79  3077               	movlw	(STR_1-__stringbase)& (0+255)
  1925  0A7A  01CF               	clrf	main@cnt2^(0+128)
  1926                           
  1927                           ;eeprom_i2c.c: 312: sprintf(buffer,"Escribiendo...");
  1928  0A7B  1283               	bcf	3,5	;RP0=0, select bank0
  1929  0A7C  00D2               	movwf	?_sprintf
  1930  0A7D  30B9               	movlw	main@buffer& (0+255)
  1931  0A7E  120A  118A  2061   	fcall	_sprintf
      +       120A  158A         
  1932                           
  1933                           ;eeprom_i2c.c: 313: for (char x = 0; x<20; x++)
  1934  0A83  01CB               	clrf	main@x^(0+128)
  1935  0A84                     l6268:	
  1936                           
  1937                           ;eeprom_i2c.c: 314: {
  1938                           ;eeprom_i2c.c: 315: putch (buffer[x]);
  1939  0A84  084B               	movf	main@x^(0+128),w
  1940  0A85  3EB9               	addlw	main@buffer& (0+255)
  1941  0A86  0084               	movwf	4
  1942  0A87  0800               	movf	0,w
  1943  0A88  120A  118A  203D   	fcall	_putch
      +       120A  158A         
  1944  0A8D  1683               	bsf	3,5	;RP0=1, select bank1
  1945  0A8E  3014               	movlw	20
  1946  0A8F  0ACB               	incf	main@x^(0+128),f
  1947  0A90  024B               	subwf	main@x^(0+128),w
  1948  0A91  1C03               	skipc
  1949  0A92  2A84               	goto	l6268
  1950                           
  1951                           ;eeprom_i2c.c: 316: }
  1952                           ;eeprom_i2c.c: 317: pause(200);
  1953  0A93  30C8               	movlw	200
  1954  0A94  00F0               	movwf	?_pause
  1955  0A95  01F1               	clrf	?_pause+1
  1956  0A96  160A  118A  2660   	fcall	_pause
      +       120A  158A         
  1957                           
  1958                           ;eeprom_i2c.c: 318: putch(0x0D);
  1959  0A9B  300D               	movlw	13
  1960  0A9C  120A  118A  203D   	fcall	_putch
      +       120A  158A         
  1961                           
  1962                           ;eeprom_i2c.c: 319: putch(0x0A);
  1963  0AA1  300A               	movlw	10
  1964  0AA2  120A  118A  203D   	fcall	_putch
      +       120A  158A         
  1965                           
  1966                           ;eeprom_i2c.c: 321: lcd_goto(0);
  1967  0AA7  3000               	movlw	0
  1968  0AA8  160A  118A  25BE   	fcall	_lcd_goto
      +       120A  158A         
  1969                           
  1970                           ;eeprom_i2c.c: 322: lcd_puts("Escribiendo...");
  1971  0AAD  3077               	movlw	low (STR_1-__stringbase)
  1972  0AAE  00F5               	movwf	?_lcd_puts
  1973  0AAF  3080               	movlw	128
  1974  0AB0  00F6               	movwf	?_lcd_puts+1
  1975  0AB1  160A  118A  2631   	fcall	_lcd_puts
      +       120A  158A         
  1976                           
  1977                           ;eeprom_i2c.c: 324: i2c_init();
  1978  0AB6  120A  118A  2045   	fcall	_i2c_init
      +       120A  158A         
  1979                           
  1980                           ;eeprom_i2c.c: 326: PORTB=0;
  1981  0ABB  1283               	bcf	3,5	;RP0=0, select bank0
  1982  0ABC  0186               	clrf	6	;volatile
  1983                           
  1984                           ;eeprom_i2c.c: 328: pause(3000);
  1985  0ABD  30B8               	movlw	184
  1986  0ABE  00F0               	movwf	?_pause
  1987  0ABF  300B               	movlw	11
  1988  0AC0  00F1               	movwf	?_pause+1
  1989  0AC1  160A  118A  2660   	fcall	_pause
      +       120A  158A         
  1990  0AC6                     l6326:	
  1991                           ;eeprom_i2c.c: 331: while(cnt2 < 25)
  1992                           
  1993  0AC6  3019               	movlw	25
  1994  0AC7  1683               	bsf	3,5	;RP0=1, select bank1
  1995  0AC8  1303               	bcf	3,6	;RP1=0, select bank1
  1996  0AC9  024F               	subwf	main@cnt2^(0+128),w
  1997  0ACA  1803               	btfsc	3,0
  1998  0ACB  2B90               	goto	l6328
  1999                           
  2000                           ;eeprom_i2c.c: 332: {
  2001                           ;eeprom_i2c.c: 333: ADCON0=0xC1;
  2002  0ACC  30C1               	movlw	193
  2003  0ACD  1283               	bcf	3,5	;RP0=0, select bank0
  2004  0ACE  009F               	movwf	31	;volatile
  2005                           
  2006                           ;eeprom_i2c.c: 334: GO_DONE=1;
  2007  0ACF  149F               	bsf	31,1
  2008  0AD0                     l1146:	
  2009                           ;eeprom_i2c.c: 335: while(GO_DONE==1);
  2010                           
  2011  0AD0  189F               	btfsc	31,1
  2012  0AD1  2AD0               	goto	l1146
  2013                           
  2014                           ;eeprom_i2c.c: 336: CCPR1L=ADRESH;
  2015  0AD2  081E               	movf	30,w	;volatile
  2016  0AD3  0095               	movwf	21	;volatile
  2017                           
  2018                           ;eeprom_i2c.c: 337: CCP1CON=(ADRESL>>2)|0x0C;
  2019  0AD4  1683               	bsf	3,5	;RP0=1, select bank1
  2020  0AD5  081E               	movf	30,w	;volatile
  2021  0AD6  1283               	bcf	3,5	;RP0=0, select bank0
  2022  0AD7  00DB               	movwf	??_main
  2023  0AD8  1003               	clrc
  2024  0AD9  0CDB               	rrf	??_main,f
  2025  0ADA  1003               	clrc
  2026  0ADB  0CDB               	rrf	??_main,f
  2027  0ADC  085B               	movf	??_main,w
  2028  0ADD  380C               	iorlw	12
  2029  0ADE  0097               	movwf	23	;volatile
  2030                           
  2031                           ;eeprom_i2c.c: 338: nin=(ADRESH<<2)|(ADRESL>>6);
  2032  0ADF  081E               	movf	30,w	;volatile
  2033  0AE0  1683               	bsf	3,5	;RP0=1, select bank1
  2034  0AE1  00D3               	movwf	_nin^(0+128)
  2035  0AE2  01D4               	clrf	(_nin+1)^(0+128)
  2036  0AE3  1003               	clrc
  2037  0AE4  0DD3               	rlf	_nin^(0+128),f
  2038  0AE5  0DD4               	rlf	(_nin+1)^(0+128),f
  2039  0AE6  1003               	clrc
  2040  0AE7  0DD3               	rlf	_nin^(0+128),f
  2041  0AE8  0DD4               	rlf	(_nin+1)^(0+128),f
  2042  0AE9  081E               	movf	30,w	;volatile
  2043  0AEA  1283               	bcf	3,5	;RP0=0, select bank0
  2044  0AEB  00DB               	movwf	??_main
  2045  0AEC  3006               	movlw	6
  2046  0AED                     u3635:	
  2047  0AED  1003               	clrc
  2048  0AEE  0CDB               	rrf	??_main,f
  2049  0AEF  3EFF               	addlw	-1
  2050  0AF0  1D03               	skipz
  2051  0AF1  2AED               	goto	u3635
  2052  0AF2  085B               	movf	??_main,w
  2053  0AF3  1683               	bsf	3,5	;RP0=1, select bank1
  2054  0AF4  04D3               	iorwf	_nin^(0+128),f
  2055                           
  2056                           ;eeprom_i2c.c: 339: num=nin*0.004887585533;
  2057  0AF5  3028               	movlw	40
  2058  0AF6  1283               	bcf	3,5	;RP0=0, select bank0
  2059  0AF7  00AD               	movwf	?___ftmul
  2060  0AF8  30A0               	movlw	160
  2061  0AF9  00AE               	movwf	?___ftmul+1
  2062  0AFA  303B               	movlw	59
  2063  0AFB  00AF               	movwf	?___ftmul+2
  2064  0AFC  1683               	bsf	3,5	;RP0=1, select bank1
  2065  0AFD  0854               	movf	(_nin+1)^(0+128),w
  2066  0AFE  00F9               	movwf	?___awtoft+1
  2067  0AFF  0853               	movf	_nin^(0+128),w
  2068  0B00  00F8               	movwf	?___awtoft
  2069  0B01  120A  158A  249F   	fcall	___awtoft
      +       120A  158A         
  2070  0B06  0878               	movf	?___awtoft,w
  2071  0B07  1283               	bcf	3,5	;RP0=0, select bank0
  2072  0B08  00B0               	movwf	?___ftmul+3
  2073  0B09  0879               	movf	?___awtoft+1,w
  2074  0B0A  00B1               	movwf	?___ftmul+4
  2075  0B0B  087A               	movf	?___awtoft+2,w
  2076  0B0C  00B2               	movwf	?___ftmul+5
  2077  0B0D  120A  158A  26EC   	fcall	___ftmul
      +       120A  158A         
  2078  0B12  082D               	movf	?___ftmul,w
  2079  0B13  1683               	bsf	3,5	;RP0=1, select bank1
  2080  0B14  00D0               	movwf	_num^(0+128)
  2081  0B15  1283               	bcf	3,5	;RP0=0, select bank0
  2082  0B16  082E               	movf	?___ftmul+1,w
  2083  0B17  1683               	bsf	3,5	;RP0=1, select bank1
  2084  0B18  00D1               	movwf	(_num+1)^(0+128)
  2085  0B19  1283               	bcf	3,5	;RP0=0, select bank0
  2086  0B1A  082F               	movf	?___ftmul+2,w
  2087  0B1B  1683               	bsf	3,5	;RP0=1, select bank1
  2088  0B1C  00D2               	movwf	(_num+2)^(0+128)
  2089                           
  2090                           ;eeprom_i2c.c: 340: sprintf(carac,"%1.3f",nin);
  2091  0B1D  30B0               	movlw	(STR_3-__stringbase)& (0+255)
  2092  0B1E  1283               	bcf	3,5	;RP0=0, select bank0
  2093  0B1F  00D2               	movwf	?_sprintf
  2094  0B20  1683               	bsf	3,5	;RP0=1, select bank1
  2095  0B21  0854               	movf	(_nin+1)^(0+128),w
  2096  0B22  1283               	bcf	3,5	;RP0=0, select bank0
  2097  0B23  00D4               	movwf	?_sprintf+2
  2098  0B24  1683               	bsf	3,5	;RP0=1, select bank1
  2099  0B25  0853               	movf	_nin^(0+128),w
  2100  0B26  1283               	bcf	3,5	;RP0=0, select bank0
  2101  0B27  00D3               	movwf	?_sprintf+1
  2102  0B28  30D5               	movlw	_carac& (0+255)
  2103  0B29  120A  118A  2061   	fcall	_sprintf
      +       120A  158A         
  2104                           
  2105                           ;eeprom_i2c.c: 342: lcd_goto(0x40);
  2106  0B2E  3040               	movlw	64
  2107  0B2F  160A  118A  25BE   	fcall	_lcd_goto
      +       120A  158A         
  2108                           
  2109                           ;eeprom_i2c.c: 343: lcd_puts("V1:");
  2110  0B34  30B6               	movlw	low (STR_4-__stringbase)
  2111  0B35  00F5               	movwf	?_lcd_puts
  2112  0B36  3080               	movlw	128
  2113  0B37  00F6               	movwf	?_lcd_puts+1
  2114  0B38  160A  118A  2631   	fcall	_lcd_puts
      +       120A  158A         
  2115                           
  2116                           ;eeprom_i2c.c: 344: lcd_puts(carac);
  2117  0B3D  30D5               	movlw	_carac& (0+255)
  2118  0B3E  00F5               	movwf	?_lcd_puts
  2119  0B3F  01F6               	clrf	?_lcd_puts+1
  2120  0B40  160A  118A  2631   	fcall	_lcd_puts
      +       120A  158A         
  2121                           
  2122                           ;eeprom_i2c.c: 346: sprintf(buffer,"V%i : %s  ",cnt2,carac);
  2123  0B45  3093               	movlw	(STR_5-__stringbase)& (0+255)
  2124  0B46  00D2               	movwf	?_sprintf
  2125  0B47  1683               	bsf	3,5	;RP0=1, select bank1
  2126  0B48  084F               	movf	main@cnt2^(0+128),w
  2127  0B49  1283               	bcf	3,5	;RP0=0, select bank0
  2128  0B4A  00D3               	movwf	?_sprintf+1
  2129  0B4B  30D5               	movlw	_carac& (0+255)
  2130  0B4C  01D4               	clrf	?_sprintf+2
  2131  0B4D  00D5               	movwf	?_sprintf+3
  2132  0B4E  30B9               	movlw	main@buffer& (0+255)
  2133  0B4F  120A  118A  2061   	fcall	_sprintf
      +       120A  158A         
  2134                           
  2135                           ;eeprom_i2c.c: 347: for (char x = 0; x<10; x++)
  2136  0B54  01CC               	clrf	main@x_1874^(0+128)
  2137  0B55                     l6316:	
  2138                           
  2139                           ;eeprom_i2c.c: 348: {
  2140                           ;eeprom_i2c.c: 349: putch (buffer[x]);
  2141  0B55  084C               	movf	main@x_1874^(0+128),w
  2142  0B56  3EB9               	addlw	main@buffer& (0+255)
  2143  0B57  0084               	movwf	4
  2144  0B58  0800               	movf	0,w
  2145  0B59  120A  118A  203D   	fcall	_putch
      +       120A  158A         
  2146  0B5E  1683               	bsf	3,5	;RP0=1, select bank1
  2147  0B5F  300A               	movlw	10
  2148  0B60  0ACC               	incf	main@x_1874^(0+128),f
  2149  0B61  024C               	subwf	main@x_1874^(0+128),w
  2150  0B62  1C03               	skipc
  2151  0B63  2B55               	goto	l6316
  2152                           
  2153                           ;eeprom_i2c.c: 350: }
  2154                           ;eeprom_i2c.c: 351: putch(0x0D);
  2155  0B64  300D               	movlw	13
  2156  0B65  120A  118A  203D   	fcall	_putch
      +       120A  158A         
  2157                           
  2158                           ;eeprom_i2c.c: 352: putch(0x0A);
  2159  0B6A  300A               	movlw	10
  2160  0B6B  120A  118A  203D   	fcall	_putch
      +       120A  158A         
  2161                           
  2162                           ;eeprom_i2c.c: 354: pause (100);
  2163  0B70  3064               	movlw	100
  2164  0B71  00F0               	movwf	?_pause
  2165  0B72  01F1               	clrf	?_pause+1
  2166  0B73  160A  118A  2660   	fcall	_pause
      +       120A  158A         
  2167                           
  2168                           ;eeprom_i2c.c: 355: I2C_EEOUT(cnt1, cnt2, (char)nin);
  2169  0B78  1683               	bsf	3,5	;RP0=1, select bank1
  2170  0B79  1303               	bcf	3,6	;RP1=0, select bank1
  2171  0B7A  084F               	movf	main@cnt2^(0+128),w
  2172  0B7B  00F4               	movwf	?_I2C_EEOUT
  2173  0B7C  0853               	movf	_nin^(0+128),w
  2174  0B7D  00F5               	movwf	?_I2C_EEOUT+1
  2175  0B7E  0848               	movf	main@cnt1^(0+128),w
  2176  0B7F  160A  118A  25C5   	fcall	_I2C_EEOUT
      +       120A  158A         
  2177                           
  2178                           ;eeprom_i2c.c: 356: pause(20);
  2179  0B84  3014               	movlw	20
  2180  0B85  00F0               	movwf	?_pause
  2181  0B86  01F1               	clrf	?_pause+1
  2182  0B87  160A  118A  2660   	fcall	_pause
      +       120A  158A         
  2183                           
  2184                           ;eeprom_i2c.c: 357: cnt2 = cnt2 + 1;
  2185  0B8C  1683               	bsf	3,5	;RP0=1, select bank1
  2186  0B8D  1303               	bcf	3,6	;RP1=0, select bank1
  2187  0B8E  0ACF               	incf	main@cnt2^(0+128),f
  2188  0B8F  2AC6               	goto	l6326
  2189  0B90                     l6328:	
  2190                           
  2191                           ;eeprom_i2c.c: 358: }
  2192                           ;eeprom_i2c.c: 360: cnt2=0;
  2193  0B90  01CF               	clrf	main@cnt2^(0+128)
  2194                           
  2195                           ;eeprom_i2c.c: 362: lcd_clear();
  2196  0B91  160A  118A  2627   	fcall	_lcd_clear
      +       120A  158A         
  2197                           
  2198                           ;eeprom_i2c.c: 363: lcd_goto(0);
  2199  0B96  3000               	movlw	0
  2200  0B97  160A  118A  25BE   	fcall	_lcd_goto
      +       120A  158A         
  2201                           
  2202                           ;eeprom_i2c.c: 364: lcd_puts("Leyendo...");
  2203  0B9C  309E               	movlw	low (STR_6-__stringbase)
  2204  0B9D  00F5               	movwf	?_lcd_puts
  2205  0B9E  3080               	movlw	128
  2206  0B9F  00F6               	movwf	?_lcd_puts+1
  2207  0BA0  160A  118A  2631   	fcall	_lcd_puts
      +       120A  158A         
  2208                           
  2209                           ;eeprom_i2c.c: 366: sprintf(buffer,"Leyendo.... ");
  2210  0BA5  3086               	movlw	(STR_7-__stringbase)& (0+255)
  2211  0BA6  00D2               	movwf	?_sprintf
  2212  0BA7  30B9               	movlw	main@buffer& (0+255)
  2213  0BA8  120A  118A  2061   	fcall	_sprintf
      +       120A  158A         
  2214                           
  2215                           ;eeprom_i2c.c: 367: for (char x = 0; x<10; x++)
  2216  0BAD  01CD               	clrf	main@x_1877^(0+128)
  2217  0BAE                     l6342:	
  2218                           
  2219                           ;eeprom_i2c.c: 368: {
  2220                           ;eeprom_i2c.c: 369: putch (buffer[x]);
  2221  0BAE  084D               	movf	main@x_1877^(0+128),w
  2222  0BAF  3EB9               	addlw	main@buffer& (0+255)
  2223  0BB0  0084               	movwf	4
  2224  0BB1  0800               	movf	0,w
  2225  0BB2  120A  118A  203D   	fcall	_putch
      +       120A  158A         
  2226  0BB7  1683               	bsf	3,5	;RP0=1, select bank1
  2227  0BB8  300A               	movlw	10
  2228  0BB9  0ACD               	incf	main@x_1877^(0+128),f
  2229  0BBA  024D               	subwf	main@x_1877^(0+128),w
  2230  0BBB  1C03               	skipc
  2231  0BBC  2BAE               	goto	l6342
  2232                           
  2233                           ;eeprom_i2c.c: 370: }
  2234                           ;eeprom_i2c.c: 371: pause(200);
  2235  0BBD  30C8               	movlw	200
  2236  0BBE  00F0               	movwf	?_pause
  2237  0BBF  01F1               	clrf	?_pause+1
  2238  0BC0  160A  118A  2660   	fcall	_pause
      +       120A  158A         
  2239                           
  2240                           ;eeprom_i2c.c: 372: putch(0x0D);
  2241  0BC5  300D               	movlw	13
  2242  0BC6  120A  118A  203D   	fcall	_putch
      +       120A  158A         
  2243                           
  2244                           ;eeprom_i2c.c: 373: putch(0x0A);
  2245  0BCB  300A               	movlw	10
  2246  0BCC  120A  118A  203D   	fcall	_putch
      +       120A  158A         
  2247  0BD1                     l6376:	
  2248                           ;eeprom_i2c.c: 375: while(cnt2<25)
  2249                           
  2250  0BD1  3019               	movlw	25
  2251  0BD2  1683               	bsf	3,5	;RP0=1, select bank1
  2252  0BD3  024F               	subwf	main@cnt2^(0+128),w
  2253  0BD4  1803               	btfsc	3,0
  2254  0BD5  2C9C               	goto	l1159
  2255                           
  2256                           ;eeprom_i2c.c: 376: {
  2257                           ;eeprom_i2c.c: 377: lcd_goto(0x40);
  2258  0BD6  3040               	movlw	64
  2259  0BD7  160A  118A  25BE   	fcall	_lcd_goto
      +       120A  158A         
  2260                           
  2261                           ;eeprom_i2c.c: 378: B1=I2C_EEIN(cnt1,cnt2);
  2262  0BDC  1683               	bsf	3,5	;RP0=1, select bank1
  2263  0BDD  084F               	movf	main@cnt2^(0+128),w
  2264  0BDE  00F1               	movwf	?_I2C_EEIN
  2265  0BDF  0848               	movf	main@cnt1^(0+128),w
  2266  0BE0  160A  118A  25E0   	fcall	_I2C_EEIN
      +       120A  158A         
  2267                           
  2268                           ;eeprom_i2c.c: 399: lcd_goto(0x40);
  2269  0BE5  3040               	movlw	64
  2270  0BE6  160A  118A  25BE   	fcall	_lcd_goto
      +       120A  158A         
  2271                           
  2272                           ;eeprom_i2c.c: 400: nin=I2C_EEIN(cnt1,cnt2);
  2273  0BEB  1683               	bsf	3,5	;RP0=1, select bank1
  2274  0BEC  084F               	movf	main@cnt2^(0+128),w
  2275  0BED  00F1               	movwf	?_I2C_EEIN
  2276  0BEE  0848               	movf	main@cnt1^(0+128),w
  2277  0BEF  160A  118A  25E0   	fcall	_I2C_EEIN
      +       120A  158A         
  2278  0BF4  00D3               	movwf	_nin^(0+128)
  2279  0BF5  3014               	movlw	20
  2280  0BF6  01D4               	clrf	(_nin+1)^(0+128)
  2281                           
  2282                           ;eeprom_i2c.c: 401: pause(20);
  2283  0BF7  00F0               	movwf	?_pause
  2284  0BF8  01F1               	clrf	?_pause+1
  2285  0BF9  160A  118A  2660   	fcall	_pause
      +       120A  158A         
  2286                           
  2287                           ;eeprom_i2c.c: 402: num=nin*0.004887585533;
  2288  0BFE  3028               	movlw	40
  2289  0BFF  1283               	bcf	3,5	;RP0=0, select bank0
  2290  0C00  1303               	bcf	3,6	;RP1=0, select bank0
  2291  0C01  00AD               	movwf	?___ftmul
  2292  0C02  30A0               	movlw	160
  2293  0C03  00AE               	movwf	?___ftmul+1
  2294  0C04  303B               	movlw	59
  2295  0C05  00AF               	movwf	?___ftmul+2
  2296  0C06  1683               	bsf	3,5	;RP0=1, select bank1
  2297  0C07  0854               	movf	(_nin+1)^(0+128),w
  2298  0C08  00F9               	movwf	?___awtoft+1
  2299  0C09  0853               	movf	_nin^(0+128),w
  2300  0C0A  00F8               	movwf	?___awtoft
  2301  0C0B  120A  158A  249F   	fcall	___awtoft
      +       120A  158A         
  2302  0C10  0878               	movf	?___awtoft,w
  2303  0C11  1283               	bcf	3,5	;RP0=0, select bank0
  2304  0C12  00B0               	movwf	?___ftmul+3
  2305  0C13  0879               	movf	?___awtoft+1,w
  2306  0C14  00B1               	movwf	?___ftmul+4
  2307  0C15  087A               	movf	?___awtoft+2,w
  2308  0C16  00B2               	movwf	?___ftmul+5
  2309  0C17  120A  158A  26EC   	fcall	___ftmul
      +       120A  158A         
  2310  0C1C  082D               	movf	?___ftmul,w
  2311  0C1D  1683               	bsf	3,5	;RP0=1, select bank1
  2312  0C1E  00D0               	movwf	_num^(0+128)
  2313  0C1F  1283               	bcf	3,5	;RP0=0, select bank0
  2314  0C20  082E               	movf	?___ftmul+1,w
  2315  0C21  1683               	bsf	3,5	;RP0=1, select bank1
  2316  0C22  00D1               	movwf	(_num+1)^(0+128)
  2317  0C23  1283               	bcf	3,5	;RP0=0, select bank0
  2318  0C24  082F               	movf	?___ftmul+2,w
  2319  0C25  1683               	bsf	3,5	;RP0=1, select bank1
  2320  0C26  00D2               	movwf	(_num+2)^(0+128)
  2321                           
  2322                           ;eeprom_i2c.c: 403: sprintf(carac,"%1.3f",num);
  2323  0C27  30B0               	movlw	(STR_3-__stringbase)& (0+255)
  2324  0C28  1283               	bcf	3,5	;RP0=0, select bank0
  2325  0C29  00D2               	movwf	?_sprintf
  2326  0C2A  1683               	bsf	3,5	;RP0=1, select bank1
  2327  0C2B  0850               	movf	_num^(0+128),w
  2328  0C2C  1283               	bcf	3,5	;RP0=0, select bank0
  2329  0C2D  00D3               	movwf	?_sprintf+1
  2330  0C2E  1683               	bsf	3,5	;RP0=1, select bank1
  2331  0C2F  0851               	movf	(_num+1)^(0+128),w
  2332  0C30  1283               	bcf	3,5	;RP0=0, select bank0
  2333  0C31  00D4               	movwf	?_sprintf+2
  2334  0C32  1683               	bsf	3,5	;RP0=1, select bank1
  2335  0C33  0852               	movf	(_num+2)^(0+128),w
  2336  0C34  1283               	bcf	3,5	;RP0=0, select bank0
  2337  0C35  00D5               	movwf	?_sprintf+3
  2338  0C36  30D5               	movlw	_carac& (0+255)
  2339  0C37  120A  118A  2061   	fcall	_sprintf
      +       120A  158A         
  2340                           
  2341                           ;eeprom_i2c.c: 404: lcd_goto(0x40);
  2342  0C3C  3040               	movlw	64
  2343  0C3D  160A  118A  25BE   	fcall	_lcd_goto
      +       120A  158A         
  2344                           
  2345                           ;eeprom_i2c.c: 405: lcd_puts("V1:");
  2346  0C42  30B6               	movlw	low (STR_4-__stringbase)
  2347  0C43  00F5               	movwf	?_lcd_puts
  2348  0C44  3080               	movlw	128
  2349  0C45  00F6               	movwf	?_lcd_puts+1
  2350  0C46  160A  118A  2631   	fcall	_lcd_puts
      +       120A  158A         
  2351                           
  2352                           ;eeprom_i2c.c: 406: lcd_puts(carac);
  2353  0C4B  30D5               	movlw	_carac& (0+255)
  2354  0C4C  00F5               	movwf	?_lcd_puts
  2355  0C4D  01F6               	clrf	?_lcd_puts+1
  2356  0C4E  160A  118A  2631   	fcall	_lcd_puts
      +       120A  158A         
  2357                           
  2358                           ;eeprom_i2c.c: 407: pause (100);
  2359  0C53  3064               	movlw	100
  2360  0C54  00F0               	movwf	?_pause
  2361  0C55  01F1               	clrf	?_pause+1
  2362  0C56  160A  118A  2660   	fcall	_pause
      +       120A  158A         
  2363                           
  2364                           ;eeprom_i2c.c: 409: sprintf(buffer,"V%i : %s  ",cnt2,carac);
  2365  0C5B  3093               	movlw	(STR_5-__stringbase)& (0+255)
  2366  0C5C  1283               	bcf	3,5	;RP0=0, select bank0
  2367  0C5D  1303               	bcf	3,6	;RP1=0, select bank0
  2368  0C5E  00D2               	movwf	?_sprintf
  2369  0C5F  1683               	bsf	3,5	;RP0=1, select bank1
  2370  0C60  084F               	movf	main@cnt2^(0+128),w
  2371  0C61  1283               	bcf	3,5	;RP0=0, select bank0
  2372  0C62  00D3               	movwf	?_sprintf+1
  2373  0C63  30D5               	movlw	_carac& (0+255)
  2374  0C64  01D4               	clrf	?_sprintf+2
  2375  0C65  00D5               	movwf	?_sprintf+3
  2376  0C66  30B9               	movlw	main@buffer& (0+255)
  2377  0C67  120A  118A  2061   	fcall	_sprintf
      +       120A  158A         
  2378                           
  2379                           ;eeprom_i2c.c: 410: for (char x = 0; x<10; x++)
  2380  0C6C  01CE               	clrf	main@x_1881^(0+128)
  2381  0C6D                     l6366:	
  2382                           
  2383                           ;eeprom_i2c.c: 411: {
  2384                           ;eeprom_i2c.c: 412: putch (buffer[x]);
  2385  0C6D  084E               	movf	main@x_1881^(0+128),w
  2386  0C6E  3EB9               	addlw	main@buffer& (0+255)
  2387  0C6F  0084               	movwf	4
  2388  0C70  0800               	movf	0,w
  2389  0C71  120A  118A  203D   	fcall	_putch
      +       120A  158A         
  2390  0C76  1683               	bsf	3,5	;RP0=1, select bank1
  2391  0C77  300A               	movlw	10
  2392  0C78  0ACE               	incf	main@x_1881^(0+128),f
  2393  0C79  024E               	subwf	main@x_1881^(0+128),w
  2394  0C7A  1C03               	skipc
  2395  0C7B  2C6D               	goto	l6366
  2396                           
  2397                           ;eeprom_i2c.c: 413: }
  2398                           ;eeprom_i2c.c: 414: pause(200);
  2399  0C7C  30C8               	movlw	200
  2400  0C7D  00F0               	movwf	?_pause
  2401  0C7E  01F1               	clrf	?_pause+1
  2402  0C7F  160A  118A  2660   	fcall	_pause
      +       120A  158A         
  2403                           
  2404                           ;eeprom_i2c.c: 415: putch(0x0D);
  2405  0C84  300D               	movlw	13
  2406  0C85  120A  118A  203D   	fcall	_putch
      +       120A  158A         
  2407                           
  2408                           ;eeprom_i2c.c: 416: putch(0x0A);
  2409  0C8A  300A               	movlw	10
  2410  0C8B  120A  118A  203D   	fcall	_putch
      +       120A  158A         
  2411                           
  2412                           ;eeprom_i2c.c: 418: pause (100);
  2413  0C90  3064               	movlw	100
  2414  0C91  00F0               	movwf	?_pause
  2415  0C92  01F1               	clrf	?_pause+1
  2416  0C93  160A  118A  2660   	fcall	_pause
      +       120A  158A         
  2417                           
  2418                           ;eeprom_i2c.c: 419: cnt2=cnt2 + 1;
  2419  0C98  1683               	bsf	3,5	;RP0=1, select bank1
  2420  0C99  1303               	bcf	3,6	;RP1=0, select bank1
  2421  0C9A  0ACF               	incf	main@cnt2^(0+128),f
  2422  0C9B  2BD1               	goto	l6376
  2423  0C9C                     l1159:	
  2424  0C9C  120A  118A  2800   	ljmp	start
  2425  0C9F                     __end_of_main:	
  2426                           
  2427                           	psect	text718
  2428  0061                     __ptext718:	
  2429 ;; =============== function _main ends ============
  2430                           
  2431                           
  2432 ;; *************** function _sprintf *****************
  2433 ;; Defined at:
  2434 ;;		line 488 in file "C:\Program Files (x86)\HI-TECH Software\PICC\9.82\lib\doprnt.c"
  2435 ;; Parameters:    Size  Location     Type
  2436 ;;  sp              1    wreg     PTR unsigned char 
  2437 ;;		 -> carac(5), main@buffer(15), 
  2438 ;;  f               1   50[BANK0 ] PTR const unsigned char 
  2439 ;;		 -> STR_10(11), STR_8(6), STR_7(13), STR_5(11), 
  2440 ;;		 -> STR_3(6), STR_1(15), 
  2441 ;; Auto vars:     Size  Location     Type
  2442 ;;  sp              1   17[BANK1 ] PTR unsigned char 
  2443 ;;		 -> carac(5), main@buffer(15), 
  2444 ;;  _val            4   21[BANK1 ] struct .
  2445 ;;  fval            3   14[BANK1 ] struct .
  2446 ;;  integ           3    5[BANK1 ] struct .
  2447 ;;  ival            3    0        struct .
  2448 ;;  prec            2   18[BANK1 ] int 
  2449 ;;  exp             2   12[BANK1 ] int 
  2450 ;;  width           2   10[BANK1 ] int 
  2451 ;;  flag            2    8[BANK1 ] unsigned short 
  2452 ;;  c               1   20[BANK1 ] char 
  2453 ;;  ap              1    4[BANK1 ] PTR void [1]
  2454 ;;		 -> ?_sprintf(2), 
  2455 ;;  d               1    0        unsigned char 
  2456 ;; Return value:  Size  Location     Type
  2457 ;;                  2   50[BANK0 ] int 
  2458 ;; Registers used:
  2459 ;;		wreg, fsr0l, fsr0h, status,2, status,0, btemp+1, pclath, cstack
  2460 ;; Tracked objects:
  2461 ;;		On entry : 60/0
  2462 ;;		On exit  : 160/20
  2463 ;;		Unchanged: FFE00/0
  2464 ;; Data sizes:     COMMON   BANK0   BANK1   BANK3   BANK2
  2465 ;;      Params:         0       4       0       0       0
  2466 ;;      Locals:         0       0      25       0       0
  2467 ;;      Temps:          0       5       0       0       0
  2468 ;;      Totals:         0       9      25       0       0
  2469 ;;Total ram usage:       34 bytes
  2470 ;; Hardware stack levels used:    1
  2471 ;; Hardware stack levels required when called:    3
  2472 ;; This function calls:
  2473 ;;		_isdigit
  2474 ;;		___wmul
  2475 ;;		___ftge
  2476 ;;		___ftneg
  2477 ;;		___awdiv
  2478 ;;		_scale
  2479 ;;		___ftmul
  2480 ;;		_fround
  2481 ;;		___ftadd
  2482 ;;		___fttol
  2483 ;;		__div_to_l_
  2484 ;;		__tdiv_to_l_
  2485 ;;		___lltoft
  2486 ;;		___ftsub
  2487 ;;		___lldiv
  2488 ;;		___llmod
  2489 ;; This function is called by:
  2490 ;;		_main
  2491 ;; This function uses a non-reentrant model
  2492 ;;
  2493  0061                     _sprintf:	
  2494                           
  2495                           ; Regs used in _sprintf: [wreg-fsr0h+status,2+status,0+btemp+1+pclath+cstack]
  2496                           ;sprintf@sp stored from wreg
  2497  0061  1683               	bsf	3,5	;RP0=1, select bank1
  2498  0062  00B1               	movwf	sprintf@sp^(0+128)
  2499  0063  3053               	movlw	(?_sprintf+1)& (0+255)
  2500  0064  00A4               	movwf	sprintf@ap^(0+128)
  2501  0065                     l6156:	
  2502  0065  1283               	bcf	3,5	;RP0=0, select bank0
  2503  0066  0852               	movf	sprintf@f,w
  2504  0067  0AD2               	incf	sprintf@f,f
  2505  0068  0084               	movwf	4
  2506  0069  160A  118A  200A   	fcall	stringdir
      +       120A  118A         
  2507  006E  1683               	bsf	3,5	;RP0=1, select bank1
  2508  006F  00B4               	movwf	sprintf@c^(0+128)
  2509  0070  08B4               	movf	sprintf@c^(0+128),f
  2510  0071  1903               	btfsc	3,2
  2511  0072  2DFC               	goto	l6158
  2512  0073  0834               	movf	sprintf@c^(0+128),w
  2513  0074  3A25               	xorlw	37
  2514  0075  1903               	skipnz
  2515  0076  287E               	goto	l5844
  2516  0077  0831               	movf	sprintf@sp^(0+128),w
  2517  0078  0084               	movwf	4
  2518  0079  0834               	movf	sprintf@c^(0+128),w
  2519  007A  1383               	bcf	3,7	;select IRP bank0
  2520  007B  0080               	movwf	0
  2521  007C  0AB1               	incf	sprintf@sp^(0+128),f
  2522  007D  2865               	goto	l6156
  2523  007E                     l5844:	
  2524  007E  01AA               	clrf	sprintf@width^(0+128)
  2525  007F  01AB               	clrf	(sprintf@width+1)^(0+128)
  2526  0080  01A8               	clrf	sprintf@flag^(0+128)
  2527  0081  01A9               	clrf	(sprintf@flag+1)^(0+128)
  2528  0082  1283               	bcf	3,5	;RP0=0, select bank0
  2529  0083  0852               	movf	sprintf@f,w
  2530  0084  0084               	movwf	4
  2531  0085  160A  118A  200A   	fcall	stringdir
      +       120A  118A         
  2532  008A  266B  120A  118A   	fcall	_isdigit
  2533  008D  1C03               	btfss	3,0
  2534  008E  28B7               	goto	l5856
  2535  008F  1683               	bsf	3,5	;RP0=1, select bank1
  2536  0090  01AA               	clrf	sprintf@width^(0+128)
  2537  0091  01AB               	clrf	(sprintf@width+1)^(0+128)
  2538  0092                     l5850:	
  2539  0092  1683               	bsf	3,5	;RP0=1, select bank1
  2540  0093  082B               	movf	(sprintf@width+1)^(0+128),w
  2541  0094  00F1               	movwf	?___wmul+1
  2542  0095  082A               	movf	sprintf@width^(0+128),w
  2543  0096  00F0               	movwf	?___wmul
  2544  0097  300A               	movlw	10
  2545  0098  00F2               	movwf	?___wmul+2
  2546  0099  01F3               	clrf	?___wmul+3
  2547  009A  2679               	fcall	___wmul
  2548  009B  1283               	bcf	3,5	;RP0=0, select bank0
  2549  009C  0852               	movf	sprintf@f,w
  2550  009D  0084               	movwf	4
  2551  009E  160A  118A  200A   	fcall	stringdir
      +       120A  118A         
  2552  00A3  2797  120A  118A   	fcall	PL13	;call to abstracted procedure
  2553  00A6  00AA               	movwf	sprintf@width^(0+128)
  2554  00A7  27DB               	fcall	PL28	;call to abstracted procedure
  2555  00A8  00AB               	movwf	(sprintf@width+1)^(0+128)
  2556  00A9  1283               	bcf	3,5	;RP0=0, select bank0
  2557  00AA  0AD2               	incf	sprintf@f,f
  2558  00AB  0852               	movf	sprintf@f,w
  2559  00AC  0084               	movwf	4
  2560  00AD  160A  118A  200A   	fcall	stringdir
      +       120A  118A         
  2561  00B2  266B  120A  118A   	fcall	_isdigit
  2562  00B5  1803               	btfsc	3,0
  2563  00B6  2892               	goto	l5850
  2564  00B7                     l5856:	
  2565  00B7  0852               	movf	sprintf@f,w
  2566  00B8  0084               	movwf	4
  2567  00B9  160A  118A  200A   	fcall	stringdir
      +       120A  118A         
  2568  00BE  3A2E               	xorlw	46
  2569  00BF  1D03               	skipz
  2570  00C0  28F1               	goto	l5870
  2571  00C1  1683               	bsf	3,5	;RP0=1, select bank1
  2572  00C2  1729               	bsf	(sprintf@flag^(0+128)+1),6
  2573  00C3  1283               	bcf	3,5	;RP0=0, select bank0
  2574  00C4  0AD2               	incf	sprintf@f,f
  2575  00C5  1683               	bsf	3,5	;RP0=1, select bank1
  2576  00C6  01B2               	clrf	sprintf@prec^(0+128)
  2577  00C7  01B3               	clrf	(sprintf@prec+1)^(0+128)
  2578  00C8                     l5868:	
  2579  00C8  1283               	bcf	3,5	;RP0=0, select bank0
  2580  00C9  0852               	movf	sprintf@f,w
  2581  00CA  0084               	movwf	4
  2582  00CB  160A  118A  200A   	fcall	stringdir
      +       120A  118A         
  2583  00D0  266B  120A  118A   	fcall	_isdigit
  2584  00D3  1C03               	btfss	3,0
  2585  00D4  2972               	goto	l5914
  2586  00D5  1683               	bsf	3,5	;RP0=1, select bank1
  2587  00D6  0833               	movf	(sprintf@prec+1)^(0+128),w
  2588  00D7  00F1               	movwf	?___wmul+1
  2589  00D8  0832               	movf	sprintf@prec^(0+128),w
  2590  00D9  00F0               	movwf	?___wmul
  2591  00DA  300A               	movlw	10
  2592  00DB  00F2               	movwf	?___wmul+2
  2593  00DC  01F3               	clrf	?___wmul+3
  2594  00DD  2679               	fcall	___wmul
  2595  00DE  1283               	bcf	3,5	;RP0=0, select bank0
  2596  00DF  0852               	movf	sprintf@f,w
  2597  00E0  0084               	movwf	4
  2598  00E1  160A  118A  200A   	fcall	stringdir
      +       120A  118A         
  2599  00E6  2797  120A  118A   	fcall	PL13	;call to abstracted procedure
  2600  00E9  00B2               	movwf	sprintf@prec^(0+128)
  2601  00EA  27DB  120A  118A   	fcall	PL28	;call to abstracted procedure
  2602  00ED  00B3               	movwf	(sprintf@prec+1)^(0+128)
  2603  00EE  1283               	bcf	3,5	;RP0=0, select bank0
  2604  00EF  0AD2               	incf	sprintf@f,f
  2605  00F0  28C8               	goto	l5868
  2606  00F1                     l5870:	
  2607  00F1  1683               	bsf	3,5	;RP0=1, select bank1
  2608  00F2  01B2               	clrf	sprintf@prec^(0+128)
  2609  00F3  01B3               	clrf	(sprintf@prec+1)^(0+128)
  2610  00F4  1629               	bsf	(sprintf@flag^(0+128)+1),4
  2611  00F5  2972               	goto	l5914
  2612  00F6                     l1230:	
  2613  00F6  1529               	bsf	(sprintf@flag^(0+128)+1),2
  2614  00F7  298D               	goto	l5916
  2615  00F8                     l5874:	
  2616  00F8  0824               	movf	sprintf@ap^(0+128),w
  2617  00F9  0084               	movwf	4
  2618  00FA  1383               	bcf	3,7	;select IRP bank0
  2619  00FB  0800               	movf	0,w
  2620  00FC  00B5               	movwf	sprintf@_val^(0+128)
  2621  00FD  01B6               	clrf	(sprintf@_val+1)^(0+128)
  2622  00FE  0AA4               	incf	sprintf@ap^(0+128),f
  2623  00FF  0436               	iorwf	(sprintf@_val+1)^(0+128),w
  2624  0100  1D03               	skipz
  2625  0101  2906               	goto	l5882
  2626  0102  30A9               	movlw	low (STR_11-__stringbase)
  2627  0103  00B5               	movwf	sprintf@_val^(0+128)
  2628  0104  3080               	movlw	128
  2629  0105  00B6               	movwf	(sprintf@_val+1)^(0+128)
  2630  0106                     l5882:	
  2631  0106  01B7               	clrf	(sprintf@_val^(0+128)+2)
  2632  0107  01B8               	clrf	((sprintf@_val+1)^(0+128)+2)
  2633  0108                     l5886:	
  2634  0108  0837               	movf	(sprintf@_val^(0+128)+2),w
  2635  0109  0735               	addwf	sprintf@_val^(0+128),w
  2636  010A  0084               	movwf	4
  2637  010B  0836               	movf	(sprintf@_val+1)^(0+128),w
  2638  010C  1803               	skipnc
  2639  010D  0A36               	incf	(sprintf@_val+1)^(0+128),w
  2640  010E  1283               	bcf	3,5	;RP0=0, select bank0
  2641  010F  00FF               	movwf	127
  2642  0110  160A  118A  2000   	fcall	stringtab
      +       120A  118A         
  2643  0115  3800               	iorlw	0
  2644  0116  1903               	btfsc	3,2
  2645  0117  291D               	goto	l5888
  2646  0118  1683               	bsf	3,5	;RP0=1, select bank1
  2647  0119  0AB7               	incf	(sprintf@_val^(0+128)+2),f
  2648  011A  1903               	skipnz
  2649  011B  0AB8               	incf	((sprintf@_val+1)^(0+128)+2),f
  2650  011C  2908               	goto	l5886
  2651  011D                     l5888:	
  2652  011D  1683               	bsf	3,5	;RP0=1, select bank1
  2653  011E  0833               	movf	(sprintf@prec+1)^(0+128),w
  2654  011F  0432               	iorwf	sprintf@prec^(0+128),w
  2655  0120  1903               	skipnz
  2656  0121  292E               	goto	l1239
  2657  0122  0838               	movf	((sprintf@_val+1)^(0+128)+2),w
  2658  0123  0233               	subwf	(sprintf@prec+1)^(0+128),w
  2659  0124  1D03               	skipz
  2660  0125  2928               	goto	u3125
  2661  0126  0837               	movf	(sprintf@_val^(0+128)+2),w
  2662  0127  0232               	subwf	sprintf@prec^(0+128),w
  2663  0128                     u3125:	
  2664  0128  1803               	skipnc
  2665  0129  292E               	goto	l1239
  2666  012A  0833               	movf	(sprintf@prec+1)^(0+128),w
  2667  012B  00B8               	movwf	((sprintf@_val+1)^(0+128)+2)
  2668  012C  0832               	movf	sprintf@prec^(0+128),w
  2669  012D  00B7               	movwf	(sprintf@_val^(0+128)+2)
  2670  012E                     l1239:	
  2671  012E  082B               	movf	(sprintf@width+1)^(0+128),w
  2672  012F  0238               	subwf	((sprintf@_val+1)^(0+128)+2),w
  2673  0130  1D03               	skipz
  2674  0131  2934               	goto	u3135
  2675  0132  082A               	movf	sprintf@width^(0+128),w
  2676  0133  0237               	subwf	(sprintf@_val^(0+128)+2),w
  2677  0134                     u3135:	
  2678  0134  1803               	skipnc
  2679  0135  293D               	goto	l5896
  2680  0136  0837               	movf	(sprintf@_val^(0+128)+2),w
  2681  0137  02AA               	subwf	sprintf@width^(0+128),f
  2682  0138  0838               	movf	((sprintf@_val+1)^(0+128)+2),w
  2683  0139  1C03               	skipc
  2684  013A  03AB               	decf	(sprintf@width+1)^(0+128),f
  2685  013B  02AB               	subwf	(sprintf@width+1)^(0+128),f
  2686  013C  293F               	goto	l5902
  2687  013D                     l5896:	
  2688  013D  01AA               	clrf	sprintf@width^(0+128)
  2689  013E  01AB               	clrf	(sprintf@width+1)^(0+128)
  2690  013F                     l5902:	
  2691  013F  30FF               	movlw	-1
  2692  0140  07AA               	addwf	sprintf@width^(0+128),f
  2693  0141  1C03               	skipc
  2694  0142  03AB               	decf	(sprintf@width+1)^(0+128),f
  2695  0143  0A2A               	incf	sprintf@width^(0+128),w
  2696  0144  1903               	skipnz
  2697  0145  0A2B               	incf	(sprintf@width+1)^(0+128),w
  2698  0146  1903               	btfsc	3,2
  2699  0147  2966               	goto	l5910
  2700  0148  0831               	movf	sprintf@sp^(0+128),w
  2701  0149  27F7  120A  118A   	fcall	PL33	;call to abstracted procedure
  2702  014C  293F               	goto	l5902
  2703  014D                     l5904:	
  2704  014D  0836               	movf	(sprintf@_val+1)^(0+128),w
  2705  014E  1283               	bcf	3,5	;RP0=0, select bank0
  2706  014F  00FF               	movwf	127
  2707  0150  1683               	bsf	3,5	;RP0=1, select bank1
  2708  0151  0835               	movf	sprintf@_val^(0+128),w
  2709  0152  0084               	movwf	4
  2710  0153  1283               	bcf	3,5	;RP0=0, select bank0
  2711  0154  160A  118A  2000   	fcall	stringtab
      +       120A  118A         
  2712  0159  00D6               	movwf	??_sprintf
  2713  015A  1683               	bsf	3,5	;RP0=1, select bank1
  2714  015B  0831               	movf	sprintf@sp^(0+128),w
  2715  015C  0084               	movwf	4
  2716  015D  1283               	bcf	3,5	;RP0=0, select bank0
  2717  015E  0856               	movf	??_sprintf,w
  2718  015F  1383               	bcf	3,7	;select IRP bank0
  2719  0160  0080               	movwf	0
  2720  0161  1683               	bsf	3,5	;RP0=1, select bank1
  2721  0162  0AB5               	incf	sprintf@_val^(0+128),f
  2722  0163  1903               	skipnz
  2723  0164  0AB6               	incf	(sprintf@_val+1)^(0+128),f
  2724  0165  0AB1               	incf	sprintf@sp^(0+128),f
  2725  0166                     l5910:	
  2726  0166  3001               	movlw	1
  2727  0167  02B7               	subwf	(sprintf@_val^(0+128)+2),f
  2728  0168  3000               	movlw	0
  2729  0169  1C03               	skipc
  2730  016A  03B8               	decf	((sprintf@_val+1)^(0+128)+2),f
  2731  016B  02B8               	subwf	((sprintf@_val+1)^(0+128)+2),f
  2732  016C  0A37               	incf	(sprintf@_val^(0+128)+2),w
  2733  016D  1903               	skipnz
  2734  016E  0A38               	incf	((sprintf@_val+1)^(0+128)+2),w
  2735  016F  1903               	btfsc	3,2
  2736  0170  2865               	goto	l6156
  2737  0171  294D               	goto	l5904
  2738  0172                     l5914:	
  2739  0172  1283               	bcf	3,5	;RP0=0, select bank0
  2740  0173  0852               	movf	sprintf@f,w
  2741  0174  0AD2               	incf	sprintf@f,f
  2742  0175  0084               	movwf	4
  2743  0176  160A  118A  200A   	fcall	stringdir
      +       120A  118A         
  2744  017B  1683               	bsf	3,5	;RP0=1, select bank1
  2745  017C  00B4               	movwf	sprintf@c^(0+128)
  2746                           
  2747                           ; Switch size 1, requested type "space"
  2748                           ; Number of cases is 5, Range of values is 0 to 115
  2749                           ; switch strategies available:
  2750                           ; Name         Instructions Cycles
  2751                           ; simple_byte           16     9 (average)
  2752                           ; jumptable            260     6 (fixed)
  2753                           ; rangetable           120     6 (fixed)
  2754                           ; spacedrange          238     9 (fixed)
  2755                           ; locatedrange         116     3 (fixed)
  2756                           ;	Chosen strategy is simple_byte
  2757  017D  3A00               	xorlw	0	; case 0
  2758  017E  1903               	skipnz
  2759  017F  2DFC               	goto	l6158
  2760  0180  3A64               	xorlw	100	; case 100
  2761  0181  1903               	skipnz
  2762  0182  298D               	goto	l5916
  2763  0183  3A02               	xorlw	2	; case 102
  2764  0184  1903               	skipnz
  2765  0185  28F6               	goto	l1230
  2766  0186  3A0F               	xorlw	15	; case 105
  2767  0187  1903               	skipnz
  2768  0188  298D               	goto	l5916
  2769  0189  3A1A               	xorlw	26	; case 115
  2770  018A  1903               	skipnz
  2771  018B  28F8               	goto	l5874
  2772  018C  2865               	goto	l6156
  2773  018D                     l5916:	
  2774  018D  1283               	bcf	3,5	;RP0=0, select bank0
  2775  018E  3007               	movlw	7
  2776  018F  01D6               	clrf	??_sprintf
  2777  0190  1683               	bsf	3,5	;RP0=1, select bank1
  2778  0191  0529               	andwf	(sprintf@flag+1)^(0+128),w
  2779  0192  1283               	bcf	3,5	;RP0=0, select bank0
  2780  0193  00D7               	movwf	??_sprintf+1
  2781  0194  0456               	iorwf	??_sprintf,w
  2782  0195  1903               	skipnz
  2783  0196  2CC1               	goto	l6076
  2784  0197  1683               	bsf	3,5	;RP0=1, select bank1
  2785  0198  1E29               	btfss	(sprintf@flag+1)^(0+128),4
  2786  0199  299D               	goto	l5922
  2787  019A  3006               	movlw	6
  2788  019B  00B2               	movwf	sprintf@prec^(0+128)
  2789  019C  01B3               	clrf	(sprintf@prec+1)^(0+128)
  2790  019D                     l5922:	
  2791  019D  0824               	movf	sprintf@ap^(0+128),w
  2792  019E  0084               	movwf	4
  2793  019F  1383               	bcf	3,7	;select IRP bank0
  2794  01A0  0800               	movf	0,w
  2795  01A1  00AE               	movwf	sprintf@fval^(0+128)
  2796  01A2  0A84               	incf	4,f
  2797  01A3  0800               	movf	0,w
  2798  01A4  00AF               	movwf	(sprintf@fval+1)^(0+128)
  2799  01A5  0A84               	incf	4,f
  2800  01A6  0800               	movf	0,w
  2801  01A7  00B0               	movwf	(sprintf@fval+2)^(0+128)
  2802  01A8  3003               	movlw	3
  2803  01A9  07A4               	addwf	sprintf@ap^(0+128),f
  2804  01AA  082E               	movf	sprintf@fval^(0+128),w
  2805  01AB  00F0               	movwf	?___ftge
  2806  01AC  082F               	movf	(sprintf@fval+1)^(0+128),w
  2807  01AD  00F1               	movwf	?___ftge+1
  2808  01AE  0830               	movf	(sprintf@fval+2)^(0+128),w
  2809  01AF  00F2               	movwf	?___ftge+2
  2810  01B0  01F3               	clrf	?___ftge+3
  2811  01B1  01F4               	clrf	?___ftge+4
  2812  01B2  01F5               	clrf	?___ftge+5
  2813  01B3  263F  120A  118A   	fcall	___ftge
  2814  01B6  1803               	btfsc	3,0
  2815  01B7  29C9               	goto	l5932
  2816  01B8  082E               	movf	sprintf@fval^(0+128),w
  2817  01B9  00F0               	movwf	?___ftneg
  2818  01BA  082F               	movf	(sprintf@fval+1)^(0+128),w
  2819  01BB  00F1               	movwf	?___ftneg+1
  2820  01BC  0830               	movf	(sprintf@fval+2)^(0+128),w
  2821  01BD  00F2               	movwf	?___ftneg+2
  2822  01BE  2735  120A  118A   	fcall	___ftneg
  2823  01C1  0870               	movf	?___ftneg,w
  2824  01C2  00AE               	movwf	sprintf@fval^(0+128)
  2825  01C3  0871               	movf	?___ftneg+1,w
  2826  01C4  00AF               	movwf	(sprintf@fval+1)^(0+128)
  2827  01C5  0872               	movf	?___ftneg+2,w
  2828  01C6  00B0               	movwf	(sprintf@fval+2)^(0+128)
  2829  01C7  3003               	movlw	3
  2830  01C8  04A8               	iorwf	sprintf@flag^(0+128),f
  2831  01C9                     l5932:	
  2832  01C9  01AC               	clrf	sprintf@exp^(0+128)
  2833  01CA  01AD               	clrf	(sprintf@exp+1)^(0+128)
  2834  01CB  0830               	movf	(sprintf@fval+2)^(0+128),w
  2835  01CC  042F               	iorwf	(sprintf@fval+1)^(0+128),w
  2836  01CD  042E               	iorwf	sprintf@fval^(0+128),w
  2837  01CE  1903               	skipnz
  2838  01CF  2A5F               	goto	l5964
  2839  01D0  30AE               	movlw	low sprintf@fval
  2840  01D1  0084               	movwf	4
  2841  01D2  27F0  120A  118A   	fcall	PL32	;call to abstracted procedure
  2842  01D5  0A84               	incf	4,f
  2843  01D6  0800               	movf	0,w
  2844  01D7  00D8               	movwf	??_sprintf+2
  2845  01D8  0A84               	incf	4,f
  2846  01D9  0800               	movf	0,w
  2847  01DA  00D9               	movwf	??_sprintf+3
  2848  01DB  300F               	movlw	15
  2849  01DC                     u3205:	
  2850  01DC  1003               	clrc
  2851  01DD  0CD9               	rrf	??_sprintf+3,f
  2852  01DE  0CD8               	rrf	??_sprintf+2,f
  2853  01DF  0CD7               	rrf	??_sprintf+1,f
  2854  01E0  0CD6               	rrf	??_sprintf,f
  2855  01E1  3EFF               	addlw	-1
  2856  01E2  1D03               	skipz
  2857  01E3  29DC               	goto	u3205
  2858  01E4  0857               	movf	??_sprintf+1,w
  2859  01E5  1683               	bsf	3,5	;RP0=1, select bank1
  2860  01E6  00AD               	movwf	(sprintf@exp+1)^(0+128)
  2861  01E7  1283               	bcf	3,5	;RP0=0, select bank0
  2862  01E8  0856               	movf	??_sprintf,w
  2863  01E9  1683               	bsf	3,5	;RP0=1, select bank1
  2864  01EA  00AC               	movwf	sprintf@exp^(0+128)
  2865  01EB  3082               	movlw	-126
  2866  01EC  01AD               	clrf	(sprintf@exp+1)^(0+128)
  2867  01ED  07AC               	addwf	sprintf@exp^(0+128),f
  2868  01EE  1C03               	skipc
  2869  01EF  03AD               	decf	(sprintf@exp+1)^(0+128),f
  2870  01F0  30FF               	movlw	-1
  2871  01F1  07AC               	addwf	sprintf@exp^(0+128),f
  2872  01F2  1C03               	skipc
  2873  01F3  03AD               	decf	(sprintf@exp+1)^(0+128),f
  2874  01F4  3003               	movlw	3
  2875  01F5  00F0               	movwf	?___wmul
  2876  01F6  01F1               	clrf	?___wmul+1
  2877  01F7  082D               	movf	(sprintf@exp+1)^(0+128),w
  2878  01F8  00F3               	movwf	?___wmul+3
  2879  01F9  082C               	movf	sprintf@exp^(0+128),w
  2880  01FA  00F2               	movwf	?___wmul+2
  2881  01FB  2679               	fcall	___wmul
  2882  01FC  0871               	movf	?___wmul+1,w
  2883  01FD  00AD               	movwf	(sprintf@exp+1)^(0+128)
  2884  01FE  0870               	movf	?___wmul,w
  2885  01FF  00AC               	movwf	sprintf@exp^(0+128)
  2886  0200  300A               	movlw	10
  2887  0201  00F6               	movwf	?___awdiv
  2888  0202  01F7               	clrf	?___awdiv+1
  2889  0203  082D               	movf	(sprintf@exp+1)^(0+128),w
  2890  0204  00F9               	movwf	?___awdiv+3
  2891  0205  082C               	movf	sprintf@exp^(0+128),w
  2892  0206  00F8               	movwf	?___awdiv+2
  2893  0207  120A  158A  266A   	fcall	___awdiv
      +       120A  118A         
  2894  020C  0877               	movf	?___awdiv+1,w
  2895  020D  00AD               	movwf	(sprintf@exp+1)^(0+128)
  2896  020E  0876               	movf	?___awdiv,w
  2897  020F  00AC               	movwf	sprintf@exp^(0+128)
  2898  0210  1FAD               	btfss	(sprintf@exp+1)^(0+128),7
  2899  0211  2A16               	goto	l5952
  2900  0212  30FF               	movlw	-1
  2901  0213  07AC               	addwf	sprintf@exp^(0+128),f
  2902  0214  1C03               	skipc
  2903  0215  03AD               	decf	(sprintf@exp+1)^(0+128),f
  2904  0216                     l5952:	
  2905  0216  032C               	decf	sprintf@exp^(0+128),w
  2906  0217  3AFF               	xorlw	255
  2907  0218  120A  158A  24D8   	fcall	_scale
      +       120A  118A         
  2908  021D  278A  120A  118A   	fcall	PL12	;call to abstracted procedure
  2909  0220  27AD               	fcall	PL15	;call to abstracted procedure
  2910  0221  1683               	bsf	3,5	;RP0=1, select bank1
  2911  0222  0825               	movf	sprintf@integ^(0+128),w
  2912  0223  1283               	bcf	3,5	;RP0=0, select bank0
  2913  0224  00B0               	movwf	?___ftmul+3
  2914  0225  1683               	bsf	3,5	;RP0=1, select bank1
  2915  0226  0826               	movf	(sprintf@integ+1)^(0+128),w
  2916  0227  1283               	bcf	3,5	;RP0=0, select bank0
  2917  0228  00B1               	movwf	?___ftmul+4
  2918  0229  1683               	bsf	3,5	;RP0=1, select bank1
  2919  022A  0827               	movf	(sprintf@integ+2)^(0+128),w
  2920  022B  1283               	bcf	3,5	;RP0=0, select bank0
  2921  022C  00B2               	movwf	?___ftmul+5
  2922  022D  120A  158A  26EC   	fcall	___ftmul
      +       120A  118A         
  2923  0232  082D               	movf	?___ftmul,w
  2924  0233  1683               	bsf	3,5	;RP0=1, select bank1
  2925  0234  00A5               	movwf	sprintf@integ^(0+128)
  2926  0235  1283               	bcf	3,5	;RP0=0, select bank0
  2927  0236  082E               	movf	?___ftmul+1,w
  2928  0237  1683               	bsf	3,5	;RP0=1, select bank1
  2929  0238  00A6               	movwf	(sprintf@integ+1)^(0+128)
  2930  0239  1283               	bcf	3,5	;RP0=0, select bank0
  2931  023A  082F               	movf	?___ftmul+2,w
  2932  023B  1683               	bsf	3,5	;RP0=1, select bank1
  2933  023C  00A7               	movwf	(sprintf@integ+2)^(0+128)
  2934  023D  27D4  120A  118A   	fcall	PL22	;call to abstracted procedure
  2935  0240  3080               	movlw	128
  2936  0241  01F3               	clrf	?___ftge+3
  2937  0242  00F4               	movwf	?___ftge+4
  2938  0243  303F               	movlw	63
  2939  0244  00F5               	movwf	?___ftge+5
  2940  0245  263F  120A  118A   	fcall	___ftge
  2941  0248  1803               	btfsc	3,0
  2942  0249  2A4F               	goto	l5960
  2943  024A  30FF               	movlw	-1
  2944  024B  07AC               	addwf	sprintf@exp^(0+128),f
  2945  024C  1C03               	skipc
  2946  024D  03AD               	decf	(sprintf@exp+1)^(0+128),f
  2947  024E  2A5F               	goto	l5964
  2948  024F                     l5960:	
  2949  024F  27D4  120A  118A   	fcall	PL22	;call to abstracted procedure
  2950  0252  3020               	movlw	32
  2951  0253  01F3               	clrf	?___ftge+3
  2952  0254  00F4               	movwf	?___ftge+4
  2953  0255  3041               	movlw	65
  2954  0256  00F5               	movwf	?___ftge+5
  2955  0257  263F  120A  118A   	fcall	___ftge
  2956  025A  1C03               	btfss	3,0
  2957  025B  2A5F               	goto	l5964
  2958  025C  0AAC               	incf	sprintf@exp^(0+128),f
  2959  025D  1903               	skipnz
  2960  025E  0AAD               	incf	(sprintf@exp+1)^(0+128),f
  2961  025F                     l5964:	
  2962  025F  0833               	movf	(sprintf@prec+1)^(0+128),w
  2963  0260  3A80               	xorlw	128
  2964  0261  00FF               	movwf	127
  2965  0262  3080               	movlw	128
  2966  0263  027F               	subwf	127,w
  2967  0264  1D03               	skipz
  2968  0265  2A68               	goto	u3245
  2969  0266  300D               	movlw	13
  2970  0267  0232               	subwf	sprintf@prec^(0+128),w
  2971  0268                     u3245:	
  2972  0268  1803               	skipnc
  2973  0269  2A93               	goto	l5968
  2974  026A  27FD               	call	PL34	;select bank 1
  2975  026B  0832               	movf	sprintf@prec^(0+128),w
  2976  026C  120A  158A  204E   	fcall	_fround
      +       120A  118A         
  2977  0271  0848               	movf	?_fround,w
  2978  0272  00BC               	movwf	?___ftadd
  2979  0273  0849               	movf	?_fround+1,w
  2980  0274  00BD               	movwf	?___ftadd+1
  2981  0275  084A               	movf	?_fround+2,w
  2982  0276  00BE               	movwf	?___ftadd+2
  2983  0277  1683               	bsf	3,5	;RP0=1, select bank1
  2984  0278  082E               	movf	sprintf@fval^(0+128),w
  2985  0279  1283               	bcf	3,5	;RP0=0, select bank0
  2986  027A  00BF               	movwf	?___ftadd+3
  2987  027B  1683               	bsf	3,5	;RP0=1, select bank1
  2988  027C  082F               	movf	(sprintf@fval+1)^(0+128),w
  2989  027D  1283               	bcf	3,5	;RP0=0, select bank0
  2990  027E  00C0               	movwf	?___ftadd+4
  2991  027F  1683               	bsf	3,5	;RP0=1, select bank1
  2992  0280  0830               	movf	(sprintf@fval+2)^(0+128),w
  2993  0281  1283               	bcf	3,5	;RP0=0, select bank0
  2994  0282  00C1               	movwf	?___ftadd+5
  2995  0283  160A  118A  273E   	fcall	___ftadd
      +       120A  118A         
  2996  0288  083C               	movf	?___ftadd,w
  2997  0289  1683               	bsf	3,5	;RP0=1, select bank1
  2998  028A  00AE               	movwf	sprintf@fval^(0+128)
  2999  028B  1283               	bcf	3,5	;RP0=0, select bank0
  3000  028C  083D               	movf	?___ftadd+1,w
  3001  028D  1683               	bsf	3,5	;RP0=1, select bank1
  3002  028E  00AF               	movwf	(sprintf@fval+1)^(0+128)
  3003  028F  1283               	bcf	3,5	;RP0=0, select bank0
  3004  0290  083E               	movf	?___ftadd+2,w
  3005  0291  1683               	bsf	3,5	;RP0=1, select bank1
  3006  0292  00B0               	movwf	(sprintf@fval+2)^(0+128)
  3007  0293                     l5968:	
  3008  0293  27FD               	call	PL34	;select bank 1
  3009  0294  082D               	movf	(sprintf@exp+1)^(0+128),w
  3010  0295  3A80               	xorlw	128
  3011  0296  00FF               	movwf	127
  3012  0297  3080               	movlw	128
  3013  0298  027F               	subwf	127,w
  3014  0299  1D03               	skipz
  3015  029A  2A9D               	goto	u3255
  3016  029B  300A               	movlw	10
  3017  029C  022C               	subwf	sprintf@exp^(0+128),w
  3018  029D                     u3255:	
  3019  029D  1803               	skipnc
  3020  029E  2ABE               	goto	l5976
  3021  029F  27FD               	call	PL34	;select bank 1
  3022  02A0  0830               	movf	(sprintf@fval+2)^(0+128),w
  3023  02A1  042F               	iorwf	(sprintf@fval+1)^(0+128),w
  3024  02A2  042E               	iorwf	sprintf@fval^(0+128),w
  3025  02A3  1903               	skipnz
  3026  02A4  2AFF               	goto	l5992
  3027  02A5  082E               	movf	sprintf@fval^(0+128),w
  3028  02A6  27A2  120A  118A   	fcall	PL14	;call to abstracted procedure
  3029  02A9  2692  120A  118A   	fcall	___fttol
  3030  02AC  0823               	movf	?___fttol+3,w
  3031  02AD  0422               	iorwf	?___fttol+2,w
  3032  02AE  0421               	iorwf	?___fttol+1,w
  3033  02AF  0420               	iorwf	?___fttol,w
  3034  02B0  1D03               	skipz
  3035  02B1  2AFF               	goto	l5992
  3036  02B2  1683               	bsf	3,5	;RP0=1, select bank1
  3037  02B3  082D               	movf	(sprintf@exp+1)^(0+128),w
  3038  02B4  3A80               	xorlw	128
  3039  02B5  00FF               	movwf	127
  3040  02B6  3080               	movlw	128
  3041  02B7  027F               	subwf	127,w
  3042  02B8  1D03               	skipz
  3043  02B9  2ABC               	goto	u3285
  3044  02BA  3002               	movlw	2
  3045  02BB  022C               	subwf	sprintf@exp^(0+128),w
  3046  02BC                     u3285:	
  3047  02BC  1C03               	skipc
  3048  02BD  2AFF               	goto	l5992
  3049  02BE                     l5976:	
  3050  02BE  27FD               	call	PL34	;select bank 1
  3051  02BF  27D4  120A  118A   	fcall	PL22	;call to abstracted procedure
  3052  02C2  3070               	movlw	112
  3053  02C3  00F3               	movwf	?___ftge+3
  3054  02C4  3089               	movlw	137
  3055  02C5  00F4               	movwf	?___ftge+4
  3056  02C6  3040               	movlw	64
  3057  02C7  00F5               	movwf	?___ftge+5
  3058  02C8  263F  120A  118A   	fcall	___ftge
  3059  02CB  1803               	btfsc	3,0
  3060  02CC  2ACF               	goto	l5980
  3061  02CD  30F7               	movlw	-9
  3062  02CE  2AD0               	goto	L1
  3063  02CF                     l5980:	
  3064  02CF  30F8               	movlw	-8
  3065  02D0                     L1:	
  3066  02D0  07AC               	addwf	sprintf@exp^(0+128),f
  3067  02D1  1C03               	skipc
  3068  02D2  03AD               	decf	(sprintf@exp+1)^(0+128),f
  3069  02D3  082C               	movf	sprintf@exp^(0+128),w
  3070  02D4  120A  158A  24D8   	fcall	_scale
      +       120A  118A         
  3071  02D9  278A               	fcall	PL12	;call to abstracted procedure
  3072  02DA  00F0               	movwf	?__tdiv_to_l_
  3073  02DB  082F               	movf	(sprintf@fval+1)^(0+128),w
  3074  02DC  00F1               	movwf	?__tdiv_to_l_+1
  3075  02DD  0830               	movf	(sprintf@fval+2)^(0+128),w
  3076  02DE  00F2               	movwf	?__tdiv_to_l_+2
  3077  02DF  0825               	movf	sprintf@integ^(0+128),w
  3078  02E0  00F3               	movwf	?__tdiv_to_l_+3
  3079  02E1  0826               	movf	(sprintf@integ+1)^(0+128),w
  3080  02E2  00F4               	movwf	?__tdiv_to_l_+4
  3081  02E3  0827               	movf	(sprintf@integ+2)^(0+128),w
  3082  02E4  00F5               	movwf	?__tdiv_to_l_+5
  3083  02E5  160A  118A  2546   	fcall	__tdiv_to_l_
      +       120A  118A         
  3084  02EA  0873               	movf	?__tdiv_to_l_+3,w
  3085  02EB  1683               	bsf	3,5	;RP0=1, select bank1
  3086  02EC  00A3               	movwf	(_sprintf$1951+3)^(0+128)
  3087  02ED  0872               	movf	?__tdiv_to_l_+2,w
  3088  02EE  00A2               	movwf	(_sprintf$1951+2)^(0+128)
  3089  02EF  0871               	movf	?__tdiv_to_l_+1,w
  3090  02F0  00A1               	movwf	(_sprintf$1951+1)^(0+128)
  3091  02F1  0870               	movf	?__tdiv_to_l_,w
  3092  02F2  00A0               	movwf	_sprintf$1951^(0+128)
  3093  02F3  0823               	movf	(_sprintf$1951+3)^(0+128),w
  3094  02F4  00B8               	movwf	(sprintf@_val+3)^(0+128)
  3095  02F5  0822               	movf	(_sprintf$1951+2)^(0+128),w
  3096  02F6  00B7               	movwf	(sprintf@_val+2)^(0+128)
  3097  02F7  0821               	movf	(_sprintf$1951+1)^(0+128),w
  3098  02F8  00B6               	movwf	(sprintf@_val+1)^(0+128)
  3099  02F9  0820               	movf	_sprintf$1951^(0+128),w
  3100  02FA  00B5               	movwf	sprintf@_val^(0+128)
  3101  02FB  01AE               	clrf	sprintf@fval^(0+128)
  3102  02FC  01AF               	clrf	(sprintf@fval+1)^(0+128)
  3103  02FD  01B0               	clrf	(sprintf@fval+2)^(0+128)
  3104  02FE  2B3A               	goto	l5996
  3105  02FF                     l5992:	
  3106  02FF  27FD               	call	PL34	;select bank 1
  3107  0300  082E               	movf	sprintf@fval^(0+128),w
  3108  0301  27A2  120A  118A   	fcall	PL14	;call to abstracted procedure
  3109  0304  2692  120A  118A   	fcall	___fttol
  3110  0307  277C               	fcall	PL7	;call to abstracted procedure
  3111  0308  1683               	bsf	3,5	;RP0=1, select bank1
  3112  0309  00B5               	movwf	sprintf@_val^(0+128)
  3113  030A  0838               	movf	(sprintf@_val+3)^(0+128),w
  3114  030B  00FB               	movwf	?___lltoft+3
  3115  030C  0837               	movf	(sprintf@_val+2)^(0+128),w
  3116  030D  00FA               	movwf	?___lltoft+2
  3117  030E  0836               	movf	(sprintf@_val+1)^(0+128),w
  3118  030F  00F9               	movwf	?___lltoft+1
  3119  0310  0835               	movf	sprintf@_val^(0+128),w
  3120  0311  00F8               	movwf	?___lltoft
  3121  0312  120A  158A  24BA   	fcall	___lltoft
      +       120A  118A         
  3122  0317  0878               	movf	?___lltoft,w
  3123  0318  1283               	bcf	3,5	;RP0=0, select bank0
  3124  0319  00C8               	movwf	?___ftsub
  3125  031A  0879               	movf	?___lltoft+1,w
  3126  031B  00C9               	movwf	?___ftsub+1
  3127  031C  087A               	movf	?___lltoft+2,w
  3128  031D  00CA               	movwf	?___ftsub+2
  3129  031E  1683               	bsf	3,5	;RP0=1, select bank1
  3130  031F  082E               	movf	sprintf@fval^(0+128),w
  3131  0320  1283               	bcf	3,5	;RP0=0, select bank0
  3132  0321  00CB               	movwf	?___ftsub+3
  3133  0322  1683               	bsf	3,5	;RP0=1, select bank1
  3134  0323  082F               	movf	(sprintf@fval+1)^(0+128),w
  3135  0324  1283               	bcf	3,5	;RP0=0, select bank0
  3136  0325  00CC               	movwf	?___ftsub+4
  3137  0326  1683               	bsf	3,5	;RP0=1, select bank1
  3138  0327  0830               	movf	(sprintf@fval+2)^(0+128),w
  3139  0328  1283               	bcf	3,5	;RP0=0, select bank0
  3140  0329  00CD               	movwf	?___ftsub+5
  3141  032A  273D  120A  118A   	fcall	___ftsub
  3142  032D  0848               	movf	?___ftsub,w
  3143  032E  1683               	bsf	3,5	;RP0=1, select bank1
  3144  032F  00AE               	movwf	sprintf@fval^(0+128)
  3145  0330  1283               	bcf	3,5	;RP0=0, select bank0
  3146  0331  0849               	movf	?___ftsub+1,w
  3147  0332  1683               	bsf	3,5	;RP0=1, select bank1
  3148  0333  00AF               	movwf	(sprintf@fval+1)^(0+128)
  3149  0334  1283               	bcf	3,5	;RP0=0, select bank0
  3150  0335  084A               	movf	?___ftsub+2,w
  3151  0336  1683               	bsf	3,5	;RP0=1, select bank1
  3152  0337  00B0               	movwf	(sprintf@fval+2)^(0+128)
  3153  0338  01AC               	clrf	sprintf@exp^(0+128)
  3154  0339  01AD               	clrf	(sprintf@exp+1)^(0+128)
  3155  033A                     l5996:	
  3156  033A  01B4               	clrf	sprintf@c^(0+128)
  3157  033B  0AB4               	incf	sprintf@c^(0+128),f
  3158  033C                     l6002:	
  3159  033C  2755               	fcall	PL3	;call to abstracted procedure
  3160  033D  160A  118A  200A   	fcall	stringdir
      +       120A  118A         
  3161  0342  00D7               	movwf	??_sprintf+1
  3162  0343  160A  118A  200A   	fcall	stringdir
      +       120A  118A         
  3163  0348  00D8               	movwf	??_sprintf+2
  3164  0349  160A  118A  200A   	fcall	stringdir
      +       120A  118A         
  3165  034E  00D9               	movwf	??_sprintf+3
  3166  034F  160A  118A  200A   	fcall	stringdir
      +       120A  118A         
  3167  0354  00DA               	movwf	??_sprintf+4
  3168  0355  1683               	bsf	3,5	;RP0=1, select bank1
  3169  0356  0238               	subwf	(sprintf@_val+3)^(0+128),w
  3170  0357  1D03               	skipz
  3171  0358  2B69               	goto	u3305
  3172  0359  1283               	bcf	3,5	;RP0=0, select bank0
  3173  035A  0859               	movf	??_sprintf+3,w
  3174  035B  1683               	bsf	3,5	;RP0=1, select bank1
  3175  035C  0237               	subwf	(sprintf@_val+2)^(0+128),w
  3176  035D  1D03               	skipz
  3177  035E  2B69               	goto	u3305
  3178  035F  1283               	bcf	3,5	;RP0=0, select bank0
  3179  0360  0858               	movf	??_sprintf+2,w
  3180  0361  1683               	bsf	3,5	;RP0=1, select bank1
  3181  0362  0236               	subwf	(sprintf@_val+1)^(0+128),w
  3182  0363  1D03               	skipz
  3183  0364  2B69               	goto	u3305
  3184  0365  1283               	bcf	3,5	;RP0=0, select bank0
  3185  0366  0857               	movf	??_sprintf+1,w
  3186  0367  1683               	bsf	3,5	;RP0=1, select bank1
  3187  0368  0235               	subwf	sprintf@_val^(0+128),w
  3188  0369                     u3305:	
  3189  0369  1C03               	btfss	3,0
  3190  036A  2B70               	goto	l6010
  3191  036B  0AB4               	incf	sprintf@c^(0+128),f
  3192  036C  0834               	movf	sprintf@c^(0+128),w
  3193  036D  3A0A               	xorlw	10
  3194  036E  1D03               	skipz
  3195  036F  2B3C               	goto	l6002
  3196  0370                     l6010:	
  3197  0370  0832               	movf	sprintf@prec^(0+128),w
  3198  0371  0734               	addwf	sprintf@c^(0+128),w
  3199  0372  1283               	bcf	3,5	;RP0=0, select bank0
  3200  0373  00D6               	movwf	??_sprintf
  3201  0374  1683               	bsf	3,5	;RP0=1, select bank1
  3202  0375  0833               	movf	(sprintf@prec+1)^(0+128),w
  3203  0376  1803               	skipnc
  3204  0377  0A33               	incf	(sprintf@prec+1)^(0+128),w
  3205  0378  1BB4               	btfsc	sprintf@c^(0+128),7
  3206  0379  3EFF               	addlw	255
  3207  037A  1283               	bcf	3,5	;RP0=0, select bank0
  3208  037B  00D7               	movwf	??_sprintf+1
  3209  037C  1683               	bsf	3,5	;RP0=1, select bank1
  3210  037D  082C               	movf	sprintf@exp^(0+128),w
  3211  037E  1283               	bcf	3,5	;RP0=0, select bank0
  3212  037F  0756               	addwf	??_sprintf,w
  3213  0380  00D8               	movwf	??_sprintf+2
  3214  0381  1683               	bsf	3,5	;RP0=1, select bank1
  3215  0382  082D               	movf	(sprintf@exp+1)^(0+128),w
  3216  0383  1803               	skipnc
  3217  0384  0A2D               	incf	(sprintf@exp+1)^(0+128),w
  3218  0385  1283               	bcf	3,5	;RP0=0, select bank0
  3219  0386  0757               	addwf	??_sprintf+1,w
  3220  0387  00D9               	movwf	??_sprintf+3
  3221  0388  0858               	movf	??_sprintf+2,w
  3222  0389  1683               	bsf	3,5	;RP0=1, select bank1
  3223  038A  02AA               	subwf	sprintf@width^(0+128),f
  3224  038B  1283               	bcf	3,5	;RP0=0, select bank0
  3225  038C  0859               	movf	??_sprintf+3,w
  3226  038D  1683               	bsf	3,5	;RP0=1, select bank1
  3227  038E  1C03               	skipc
  3228  038F  03AB               	decf	(sprintf@width+1)^(0+128),f
  3229  0390  02AB               	subwf	(sprintf@width+1)^(0+128),f
  3230  0391  0833               	movf	(sprintf@prec+1)^(0+128),w
  3231  0392  0432               	iorwf	sprintf@prec^(0+128),w
  3232  0393  1903               	skipnz
  3233  0394  2B99               	goto	l6016
  3234  0395  30FF               	movlw	-1
  3235  0396  07AA               	addwf	sprintf@width^(0+128),f
  3236  0397  1C03               	skipc
  3237  0398  03AB               	decf	(sprintf@width+1)^(0+128),f
  3238  0399                     l6016:	
  3239  0399  0828               	movf	sprintf@flag^(0+128),w
  3240  039A  3903               	andlw	3
  3241  039B  1D03               	btfss	3,2
  3242  039C  2BAD               	goto	l6018
  3243  039D                     l6026:	
  3244  039D  082B               	movf	(sprintf@width+1)^(0+128),w
  3245  039E  3A80               	xorlw	128
  3246  039F  00FF               	movwf	127
  3247  03A0  3080               	movlw	128
  3248  03A1  027F               	subwf	127,w
  3249  03A2  1D03               	skipz
  3250  03A3  2BA6               	goto	u3345
  3251  03A4  3001               	movlw	1
  3252  03A5  022A               	subwf	sprintf@width^(0+128),w
  3253  03A6                     u3345:	
  3254  03A6  1C03               	btfss	3,0
  3255  03A7  2BB2               	goto	l6028
  3256  03A8  27FD               	call	PL34	;select bank 1
  3257  03A9  0831               	movf	sprintf@sp^(0+128),w
  3258  03AA  27F7  120A  118A   	fcall	PL33	;call to abstracted procedure
  3259  03AD                     l6018:	
  3260  03AD  30FF               	movlw	-1
  3261  03AE  07AA               	addwf	sprintf@width^(0+128),f
  3262  03AF  1C03               	skipc
  3263  03B0  03AB               	decf	(sprintf@width+1)^(0+128),f
  3264  03B1  2B9D               	goto	l6026
  3265  03B2                     l6028:	
  3266  03B2  27FD               	call	PL34	;select bank 1
  3267  03B3  0828               	movf	sprintf@flag^(0+128),w
  3268  03B4  3903               	andlw	3
  3269  03B5  1903               	btfsc	3,2
  3270  03B6  2BE9               	goto	l6038
  3271  03B7  0831               	movf	sprintf@sp^(0+128),w
  3272  03B8  0084               	movwf	4
  3273  03B9  302D               	movlw	45
  3274  03BA  2BE5               	goto	L4
  3275  03BB                     l6034:	
  3276  03BB  275F  120A  118A   	fcall	PL4	;call to abstracted procedure
  3277  03BE  2755               	fcall	PL3	;call to abstracted procedure
  3278  03BF  160A  118A  200A   	fcall	stringdir
      +       120A  118A         
  3279  03C4  00F0               	movwf	?___lldiv
  3280  03C5  160A  118A  200A   	fcall	stringdir
      +       120A  118A         
  3281  03CA  00F1               	movwf	?___lldiv+1
  3282  03CB  160A  118A  200A   	fcall	stringdir
      +       120A  118A         
  3283  03D0  00F2               	movwf	?___lldiv+2
  3284  03D1  160A  118A  200A   	fcall	stringdir
      +       120A  118A         
  3285  03D6  2767  120A  118A   	fcall	PL5	;call to abstracted procedure
  3286  03D9  26ED  120A  118A   	fcall	___lldiv
  3287  03DC  2772  120A  118A   	fcall	PL6	;call to abstracted procedure
  3288  03DF  2601  120A  118A   	fcall	___llmod
  3289  03E2  27C2  120A  118A   	fcall	PL20	;call to abstracted procedure
  3290  03E5                     L4:	
  3291  03E5  1383               	bcf	3,7	;select IRP bank0
  3292  03E6  0080               	movwf	0
  3293  03E7  1683               	bsf	3,5	;RP0=1, select bank1
  3294  03E8  0AB1               	incf	sprintf@sp^(0+128),f
  3295  03E9                     l6038:	
  3296  03E9  03B4               	decf	sprintf@c^(0+128),f
  3297  03EA  0F34               	incfsz	sprintf@c^(0+128),w
  3298  03EB  2BBB               	goto	l6034
  3299  03EC                     l6046:	
  3300  03EC  082D               	movf	(sprintf@exp+1)^(0+128),w
  3301  03ED  3A80               	xorlw	128
  3302  03EE  00FF               	movwf	127
  3303  03EF  3080               	movlw	128
  3304  03F0  027F               	subwf	127,w
  3305  03F1  1D03               	skipz
  3306  03F2  2BF5               	goto	u3375
  3307  03F3  3001               	movlw	1
  3308  03F4  022C               	subwf	sprintf@exp^(0+128),w
  3309  03F5                     u3375:	
  3310  03F5  1C03               	btfss	3,0
  3311  03F6  2C00               	goto	l6048
  3312  03F7  27FD               	call	PL34	;select bank 1
  3313  03F8  0831               	movf	sprintf@sp^(0+128),w
  3314  03F9  27E9  120A  118A   	fcall	PL31	;call to abstracted procedure
  3315  03FC  07AC               	addwf	sprintf@exp^(0+128),f
  3316  03FD  1C03               	skipc
  3317  03FE  03AD               	decf	(sprintf@exp+1)^(0+128),f
  3318  03FF  2BEC               	goto	l6046
  3319  0400                     l6048:	
  3320  0400  27FD               	call	PL34	;select bank 1
  3321  0401  0833               	movf	(sprintf@prec+1)^(0+128),w
  3322  0402  3A80               	xorlw	128
  3323  0403  00FF               	movwf	127
  3324  0404  3080               	movlw	128
  3325  0405  027F               	subwf	127,w
  3326  0406  1D03               	skipz
  3327  0407  2C0A               	goto	u3385
  3328  0408  3009               	movlw	9
  3329  0409  0232               	subwf	sprintf@prec^(0+128),w
  3330  040A                     u3385:	
  3331  040A  1C03               	skipc
  3332  040B  2C0F               	goto	l6052
  3333  040C  3008               	movlw	8
  3334  040D  27FD               	call	PL34	;select bank 1
  3335  040E  2C11               	goto	L2
  3336  040F                     l6052:	
  3337  040F  27FD               	call	PL34	;select bank 1
  3338  0410  0832               	movf	sprintf@prec^(0+128),w
  3339  0411                     L2:	
  3340  0411  00B4               	movwf	sprintf@c^(0+128)
  3341  0412  1283               	bcf	3,5	;RP0=0, select bank0
  3342  0413  00D6               	movwf	??_sprintf
  3343  0414  01D7               	clrf	??_sprintf+1
  3344  0415  1BD6               	btfsc	??_sprintf,7
  3345  0416  03D7               	decf	??_sprintf+1,f
  3346  0417  1683               	bsf	3,5	;RP0=1, select bank1
  3347  0418  02B2               	subwf	sprintf@prec^(0+128),f
  3348  0419  1283               	bcf	3,5	;RP0=0, select bank0
  3349  041A  0857               	movf	??_sprintf+1,w
  3350  041B  1683               	bsf	3,5	;RP0=1, select bank1
  3351  041C  1C03               	skipc
  3352  041D  03B3               	decf	(sprintf@prec+1)^(0+128),f
  3353  041E  02B3               	subwf	(sprintf@prec+1)^(0+128),f
  3354  041F  0834               	movf	sprintf@c^(0+128),w
  3355  0420  1903               	btfsc	3,2
  3356  0421  2C28               	goto	l6058
  3357  0422  0831               	movf	sprintf@sp^(0+128),w
  3358  0423  0084               	movwf	4
  3359  0424  302E               	movlw	46
  3360  0425  1383               	bcf	3,7	;select IRP bank0
  3361  0426  0080               	movwf	0
  3362  0427  0AB1               	incf	sprintf@sp^(0+128),f
  3363  0428                     l6058:	
  3364  0428  0834               	movf	sprintf@c^(0+128),w
  3365  0429  120A  158A  24D8   	fcall	_scale
      +       120A  118A         
  3366  042E  083C               	movf	?_scale,w
  3367  042F  00B0               	movwf	?___ftmul+3
  3368  0430  083D               	movf	?_scale+1,w
  3369  0431  00B1               	movwf	?___ftmul+4
  3370  0432  083E               	movf	?_scale+2,w
  3371  0433  00B2               	movwf	?___ftmul+5
  3372  0434  1683               	bsf	3,5	;RP0=1, select bank1
  3373  0435  082E               	movf	sprintf@fval^(0+128),w
  3374  0436  27AD               	fcall	PL15	;call to abstracted procedure
  3375  0437  120A  158A  26EC   	fcall	___ftmul
      +       120A  118A         
  3376  043C  082D               	movf	?___ftmul,w
  3377  043D  00A0               	movwf	?___fttol
  3378  043E  082E               	movf	?___ftmul+1,w
  3379  043F  00A1               	movwf	?___fttol+1
  3380  0440  082F               	movf	?___ftmul+2,w
  3381  0441  00A2               	movwf	?___fttol+2
  3382  0442  2692  120A  118A   	fcall	___fttol
  3383  0445  277C  120A  118A   	fcall	PL7	;call to abstracted procedure
  3384  0448  2CB0               	goto	L3
  3385  0449                     l6060:	
  3386  0449  275F  120A  118A   	fcall	PL4	;call to abstracted procedure
  3387  044C  2755               	fcall	PL3	;call to abstracted procedure
  3388  044D  160A  118A  200A   	fcall	stringdir
      +       120A  118A         
  3389  0452  00F0               	movwf	?___lldiv
  3390  0453  160A  118A  200A   	fcall	stringdir
      +       120A  118A         
  3391  0458  00F1               	movwf	?___lldiv+1
  3392  0459  160A  118A  200A   	fcall	stringdir
      +       120A  118A         
  3393  045E  00F2               	movwf	?___lldiv+2
  3394  045F  160A  118A  200A   	fcall	stringdir
      +       120A  118A         
  3395  0464  2767  120A  118A   	fcall	PL5	;call to abstracted procedure
  3396  0467  26ED  120A  118A   	fcall	___lldiv
  3397  046A  2772  120A  118A   	fcall	PL6	;call to abstracted procedure
  3398  046D  2601  120A  118A   	fcall	___llmod
  3399  0470  27C2  120A  118A   	fcall	PL20	;call to abstracted procedure
  3400  0473  1383               	bcf	3,7	;select IRP bank0
  3401  0474  0080               	movwf	0
  3402  0475  1683               	bsf	3,5	;RP0=1, select bank1
  3403  0476  0AB1               	incf	sprintf@sp^(0+128),f
  3404  0477  2755               	fcall	PL3	;call to abstracted procedure
  3405  0478  160A  118A  200A   	fcall	stringdir
      +       120A  118A         
  3406  047D  00A0               	movwf	?___llmod
  3407  047E  160A  118A  200A   	fcall	stringdir
      +       120A  118A         
  3408  0483  00A1               	movwf	?___llmod+1
  3409  0484  160A  118A  200A   	fcall	stringdir
      +       120A  118A         
  3410  0489  00A2               	movwf	?___llmod+2
  3411  048A  160A  118A  200A   	fcall	stringdir
      +       120A  118A         
  3412  048F  00A3               	movwf	?___llmod+3
  3413  0490  1683               	bsf	3,5	;RP0=1, select bank1
  3414  0491  0838               	movf	(sprintf@_val+3)^(0+128),w
  3415  0492  1283               	bcf	3,5	;RP0=0, select bank0
  3416  0493  00A7               	movwf	?___llmod+7
  3417  0494  1683               	bsf	3,5	;RP0=1, select bank1
  3418  0495  0837               	movf	(sprintf@_val+2)^(0+128),w
  3419  0496  1283               	bcf	3,5	;RP0=0, select bank0
  3420  0497  00A6               	movwf	?___llmod+6
  3421  0498  1683               	bsf	3,5	;RP0=1, select bank1
  3422  0499  0836               	movf	(sprintf@_val+1)^(0+128),w
  3423  049A  1283               	bcf	3,5	;RP0=0, select bank0
  3424  049B  00A5               	movwf	?___llmod+5
  3425  049C  1683               	bsf	3,5	;RP0=1, select bank1
  3426  049D  0835               	movf	sprintf@_val^(0+128),w
  3427  049E  1283               	bcf	3,5	;RP0=0, select bank0
  3428  049F  00A4               	movwf	?___llmod+4
  3429  04A0  2601  120A  118A   	fcall	___llmod
  3430  04A3  0823               	movf	?___llmod+3,w
  3431  04A4  1683               	bsf	3,5	;RP0=1, select bank1
  3432  04A5  00B8               	movwf	(sprintf@_val+3)^(0+128)
  3433  04A6  1283               	bcf	3,5	;RP0=0, select bank0
  3434  04A7  0822               	movf	?___llmod+2,w
  3435  04A8  1683               	bsf	3,5	;RP0=1, select bank1
  3436  04A9  00B7               	movwf	(sprintf@_val+2)^(0+128)
  3437  04AA  1283               	bcf	3,5	;RP0=0, select bank0
  3438  04AB  0821               	movf	?___llmod+1,w
  3439  04AC  1683               	bsf	3,5	;RP0=1, select bank1
  3440  04AD  00B6               	movwf	(sprintf@_val+1)^(0+128)
  3441  04AE  1283               	bcf	3,5	;RP0=0, select bank0
  3442  04AF  0820               	movf	?___llmod,w
  3443  04B0                     L3:	
  3444  04B0  1683               	bsf	3,5	;RP0=1, select bank1
  3445  04B1  00B5               	movwf	sprintf@_val^(0+128)
  3446  04B2  03B4               	decf	sprintf@c^(0+128),f
  3447  04B3  0F34               	incfsz	sprintf@c^(0+128),w
  3448  04B4  2C49               	goto	l6060
  3449  04B5                     l6074:	
  3450  04B5  0833               	movf	(sprintf@prec+1)^(0+128),w
  3451  04B6  0432               	iorwf	sprintf@prec^(0+128),w
  3452  04B7  1903               	btfsc	3,2
  3453  04B8  2865               	goto	l6156
  3454  04B9  0831               	movf	sprintf@sp^(0+128),w
  3455  04BA  27E9  120A  118A   	fcall	PL31	;call to abstracted procedure
  3456  04BD  07B2               	addwf	sprintf@prec^(0+128),f
  3457  04BE  1C03               	skipc
  3458  04BF  03B3               	decf	(sprintf@prec+1)^(0+128),f
  3459  04C0  2CB5               	goto	l6074
  3460  04C1                     l6076:	
  3461  04C1  1683               	bsf	3,5	;RP0=1, select bank1
  3462  04C2  0824               	movf	sprintf@ap^(0+128),w
  3463  04C3  0084               	movwf	4
  3464  04C4  1383               	bcf	3,7	;select IRP bank0
  3465  04C5  27F0  120A  118A   	fcall	PL32	;call to abstracted procedure
  3466  04C8  0856               	movf	??_sprintf,w
  3467  04C9  1683               	bsf	3,5	;RP0=1, select bank1
  3468  04CA  00B5               	movwf	sprintf@_val^(0+128)
  3469  04CB  1283               	bcf	3,5	;RP0=0, select bank0
  3470  04CC  0857               	movf	??_sprintf+1,w
  3471  04CD  1683               	bsf	3,5	;RP0=1, select bank1
  3472  04CE  00B6               	movwf	(sprintf@_val+1)^(0+128)
  3473  04CF  3000               	movlw	0
  3474  04D0  1BB6               	btfsc	(sprintf@_val+1)^(0+128),7
  3475  04D1  30FF               	movlw	255
  3476  04D2  00B7               	movwf	(sprintf@_val+2)^(0+128)
  3477  04D3  00B8               	movwf	(sprintf@_val+3)^(0+128)
  3478  04D4  0AA4               	incf	sprintf@ap^(0+128),f
  3479  04D5  0AA4               	incf	sprintf@ap^(0+128),f
  3480  04D6  1FB8               	btfss	(sprintf@_val+3)^(0+128),7
  3481  04D7  2CE5               	goto	l6086
  3482  04D8  3003               	movlw	3
  3483  04D9  04A8               	iorwf	sprintf@flag^(0+128),f
  3484  04DA  09B5               	comf	sprintf@_val^(0+128),f
  3485  04DB  09B6               	comf	(sprintf@_val+1)^(0+128),f
  3486  04DC  09B7               	comf	(sprintf@_val+2)^(0+128),f
  3487  04DD  09B8               	comf	(sprintf@_val+3)^(0+128),f
  3488  04DE  0AB5               	incf	sprintf@_val^(0+128),f
  3489  04DF  1903               	skipnz
  3490  04E0  0AB6               	incf	(sprintf@_val+1)^(0+128),f
  3491  04E1  1903               	skipnz
  3492  04E2  0AB7               	incf	(sprintf@_val+2)^(0+128),f
  3493  04E3  1903               	skipnz
  3494  04E4  0AB8               	incf	(sprintf@_val+3)^(0+128),f
  3495  04E5                     l6086:	
  3496  04E5  0833               	movf	(sprintf@prec+1)^(0+128),w
  3497  04E6  0432               	iorwf	sprintf@prec^(0+128),w
  3498  04E7  1D03               	skipz
  3499  04E8  2CF1               	goto	l6092
  3500  04E9  0838               	movf	(sprintf@_val+3)^(0+128),w
  3501  04EA  0437               	iorwf	(sprintf@_val+2)^(0+128),w
  3502  04EB  0436               	iorwf	(sprintf@_val+1)^(0+128),w
  3503  04EC  0435               	iorwf	sprintf@_val^(0+128),w
  3504  04ED  1903               	btfsc	3,2
  3505  04EE  0AB2               	incf	sprintf@prec^(0+128),f
  3506  04EF  1903               	skipnz
  3507  04F0  0AB3               	incf	(sprintf@prec+1)^(0+128),f
  3508  04F1                     l6092:	
  3509  04F1  01B4               	clrf	sprintf@c^(0+128)
  3510  04F2  0AB4               	incf	sprintf@c^(0+128),f
  3511  04F3                     l6098:	
  3512  04F3  2755               	fcall	PL3	;call to abstracted procedure
  3513  04F4  160A  118A  200A   	fcall	stringdir
      +       120A  118A         
  3514  04F9  00D7               	movwf	??_sprintf+1
  3515  04FA  160A  118A  200A   	fcall	stringdir
      +       120A  118A         
  3516  04FF  00D8               	movwf	??_sprintf+2
  3517  0500  160A  118A  200A   	fcall	stringdir
      +       120A  118A         
  3518  0505  00D9               	movwf	??_sprintf+3
  3519  0506  160A  118A  200A   	fcall	stringdir
      +       120A  118A         
  3520  050B  00DA               	movwf	??_sprintf+4
  3521  050C  1683               	bsf	3,5	;RP0=1, select bank1
  3522  050D  0238               	subwf	(sprintf@_val+3)^(0+128),w
  3523  050E  1D03               	skipz
  3524  050F  2D20               	goto	u3455
  3525  0510  1283               	bcf	3,5	;RP0=0, select bank0
  3526  0511  0859               	movf	??_sprintf+3,w
  3527  0512  1683               	bsf	3,5	;RP0=1, select bank1
  3528  0513  0237               	subwf	(sprintf@_val+2)^(0+128),w
  3529  0514  1D03               	skipz
  3530  0515  2D20               	goto	u3455
  3531  0516  1283               	bcf	3,5	;RP0=0, select bank0
  3532  0517  0858               	movf	??_sprintf+2,w
  3533  0518  1683               	bsf	3,5	;RP0=1, select bank1
  3534  0519  0236               	subwf	(sprintf@_val+1)^(0+128),w
  3535  051A  1D03               	skipz
  3536  051B  2D20               	goto	u3455
  3537  051C  1283               	bcf	3,5	;RP0=0, select bank0
  3538  051D  0857               	movf	??_sprintf+1,w
  3539  051E  1683               	bsf	3,5	;RP0=1, select bank1
  3540  051F  0235               	subwf	sprintf@_val^(0+128),w
  3541  0520                     u3455:	
  3542  0520  1C03               	btfss	3,0
  3543  0521  2D27               	goto	l6106
  3544  0522  0AB4               	incf	sprintf@c^(0+128),f
  3545  0523  0834               	movf	sprintf@c^(0+128),w
  3546  0524  3A0A               	xorlw	10
  3547  0525  1D03               	skipz
  3548  0526  2CF3               	goto	l6098
  3549  0527                     l6106:	
  3550  0527  0834               	movf	sprintf@c^(0+128),w
  3551  0528  27B8  120A  118A   	fcall	PL19	;call to abstracted procedure
  3552  052B  0833               	movf	(sprintf@prec+1)^(0+128),w
  3553  052C  3A80               	xorlw	128
  3554  052D  1283               	bcf	3,5	;RP0=0, select bank0
  3555  052E  0258               	subwf	??_sprintf+2,w
  3556  052F  1D03               	skipz
  3557  0530  2D35               	goto	u3475
  3558  0531  1683               	bsf	3,5	;RP0=1, select bank1
  3559  0532  0832               	movf	sprintf@prec^(0+128),w
  3560  0533  1283               	bcf	3,5	;RP0=0, select bank0
  3561  0534  0256               	subwf	??_sprintf,w
  3562  0535                     u3475:	
  3563  0535  1803               	skipnc
  3564  0536  2D3B               	goto	l6110
  3565  0537  27FD               	call	PL34	;select bank 1
  3566  0538  0832               	movf	sprintf@prec^(0+128),w
  3567  0539  00B4               	movwf	sprintf@c^(0+128)
  3568  053A  2D53               	goto	l6114
  3569  053B                     l6110:	
  3570  053B  1683               	bsf	3,5	;RP0=1, select bank1
  3571  053C  27CB  120A  118A   	fcall	PL21	;call to abstracted procedure
  3572  053F  0833               	movf	(sprintf@prec+1)^(0+128),w
  3573  0540  3A80               	xorlw	128
  3574  0541  1283               	bcf	3,5	;RP0=0, select bank0
  3575  0542  00D8               	movwf	??_sprintf+2
  3576  0543  0857               	movf	??_sprintf+1,w
  3577  0544  3A80               	xorlw	128
  3578  0545  0258               	subwf	??_sprintf+2,w
  3579  0546  1D03               	skipz
  3580  0547  2D4B               	goto	u3485
  3581  0548  0856               	movf	??_sprintf,w
  3582  0549  1683               	bsf	3,5	;RP0=1, select bank1
  3583  054A  0232               	subwf	sprintf@prec^(0+128),w
  3584  054B                     u3485:	
  3585  054B  1803               	skipnc
  3586  054C  2D53               	goto	l6114
  3587  054D  27FD               	call	PL34	;select bank 1
  3588  054E  0834               	movf	sprintf@c^(0+128),w
  3589  054F  00B2               	movwf	sprintf@prec^(0+128)
  3590  0550  01B3               	clrf	(sprintf@prec+1)^(0+128)
  3591  0551  1BB2               	btfsc	sprintf@prec^(0+128),7
  3592  0552  03B3               	decf	(sprintf@prec+1)^(0+128),f
  3593  0553                     l6114:	
  3594  0553  27FD               	call	PL34	;select bank 1
  3595  0554  082B               	movf	(sprintf@width+1)^(0+128),w
  3596  0555  042A               	iorwf	sprintf@width^(0+128),w
  3597  0556  1903               	skipnz
  3598  0557  2D60               	goto	l6120
  3599  0558  0828               	movf	sprintf@flag^(0+128),w
  3600  0559  3903               	andlw	3
  3601  055A  1903               	btfsc	3,2
  3602  055B  2D60               	goto	l6120
  3603  055C  30FF               	movlw	-1
  3604  055D  07AA               	addwf	sprintf@width^(0+128),f
  3605  055E  1C03               	skipc
  3606  055F  03AB               	decf	(sprintf@width+1)^(0+128),f
  3607  0560                     l6120:	
  3608  0560  1F29               	btfss	(sprintf@flag+1)^(0+128),6
  3609  0561  2D7D               	goto	l6128
  3610  0562  0833               	movf	(sprintf@prec+1)^(0+128),w
  3611  0563  3A80               	xorlw	128
  3612  0564  1283               	bcf	3,5	;RP0=0, select bank0
  3613  0565  00D6               	movwf	??_sprintf
  3614  0566  1683               	bsf	3,5	;RP0=1, select bank1
  3615  0567  082B               	movf	(sprintf@width+1)^(0+128),w
  3616  0568  3A80               	xorlw	128
  3617  0569  1283               	bcf	3,5	;RP0=0, select bank0
  3618  056A  0256               	subwf	??_sprintf,w
  3619  056B  1D03               	skipz
  3620  056C  2D70               	goto	u3525
  3621  056D  1683               	bsf	3,5	;RP0=1, select bank1
  3622  056E  082A               	movf	sprintf@width^(0+128),w
  3623  056F  0232               	subwf	sprintf@prec^(0+128),w
  3624  0570                     u3525:	
  3625  0570  1803               	skipnc
  3626  0571  2D7A               	goto	l6126
  3627  0572  27FD               	call	PL34	;select bank 1
  3628  0573  0832               	movf	sprintf@prec^(0+128),w
  3629  0574  02AA               	subwf	sprintf@width^(0+128),f
  3630  0575  0833               	movf	(sprintf@prec+1)^(0+128),w
  3631  0576  1C03               	skipc
  3632  0577  03AB               	decf	(sprintf@width+1)^(0+128),f
  3633  0578  02AB               	subwf	(sprintf@width+1)^(0+128),f
  3634  0579  2D7D               	goto	l6128
  3635  057A                     l6126:	
  3636  057A  27FD               	call	PL34	;select bank 1
  3637  057B  01AA               	clrf	sprintf@width^(0+128)
  3638  057C  01AB               	clrf	(sprintf@width+1)^(0+128)
  3639  057D                     l6128:	
  3640  057D  0834               	movf	sprintf@c^(0+128),w
  3641  057E  27B8  120A  118A   	fcall	PL19	;call to abstracted procedure
  3642  0581  082B               	movf	(sprintf@width+1)^(0+128),w
  3643  0582  3A80               	xorlw	128
  3644  0583  1283               	bcf	3,5	;RP0=0, select bank0
  3645  0584  0258               	subwf	??_sprintf+2,w
  3646  0585  1D03               	skipz
  3647  0586  2D8B               	goto	u3535
  3648  0587  1683               	bsf	3,5	;RP0=1, select bank1
  3649  0588  082A               	movf	sprintf@width^(0+128),w
  3650  0589  1283               	bcf	3,5	;RP0=0, select bank0
  3651  058A  0256               	subwf	??_sprintf,w
  3652  058B                     u3535:	
  3653  058B  1803               	skipnc
  3654  058C  2D99               	goto	l6132
  3655  058D  1683               	bsf	3,5	;RP0=1, select bank1
  3656  058E  27CB  120A  118A   	fcall	PL21	;call to abstracted procedure
  3657  0591  02AA               	subwf	sprintf@width^(0+128),f
  3658  0592  1283               	bcf	3,5	;RP0=0, select bank0
  3659  0593  0857               	movf	??_sprintf+1,w
  3660  0594  1683               	bsf	3,5	;RP0=1, select bank1
  3661  0595  1C03               	skipc
  3662  0596  03AB               	decf	(sprintf@width+1)^(0+128),f
  3663  0597  02AB               	subwf	(sprintf@width+1)^(0+128),f
  3664  0598  2D9C               	goto	l6134
  3665  0599                     l6132:	
  3666  0599  27FD               	call	PL34	;select bank 1
  3667  059A  01AA               	clrf	sprintf@width^(0+128)
  3668  059B  01AB               	clrf	(sprintf@width+1)^(0+128)
  3669  059C                     l6134:	
  3670  059C  082B               	movf	(sprintf@width+1)^(0+128),w
  3671  059D  042A               	iorwf	sprintf@width^(0+128),w
  3672  059E  1903               	skipnz
  3673  059F  2DAE               	goto	l6142
  3674  05A0                     l6136:	
  3675  05A0  0831               	movf	sprintf@sp^(0+128),w
  3676  05A1  0084               	movwf	4
  3677  05A2  3020               	movlw	32
  3678  05A3  1383               	bcf	3,7	;select IRP bank0
  3679  05A4  0080               	movwf	0
  3680  05A5  30FF               	movlw	-1
  3681  05A6  0AB1               	incf	sprintf@sp^(0+128),f
  3682  05A7  07AA               	addwf	sprintf@width^(0+128),f
  3683  05A8  1C03               	skipc
  3684  05A9  03AB               	decf	(sprintf@width+1)^(0+128),f
  3685  05AA  082B               	movf	(sprintf@width+1)^(0+128),w
  3686  05AB  042A               	iorwf	sprintf@width^(0+128),w
  3687  05AC  1D03               	skipz
  3688  05AD  2DA0               	goto	l6136
  3689  05AE                     l6142:	
  3690  05AE  0828               	movf	sprintf@flag^(0+128),w
  3691  05AF  3903               	andlw	3
  3692  05B0  1903               	btfsc	3,2
  3693  05B1  2DB8               	goto	l6154
  3694  05B2  0831               	movf	sprintf@sp^(0+128),w
  3695  05B3  0084               	movwf	4
  3696  05B4  302D               	movlw	45
  3697  05B5                     L5:	
  3698  05B5  1383               	bcf	3,7	;select IRP bank0
  3699  05B6  0080               	movwf	0
  3700  05B7  0AB1               	incf	sprintf@sp^(0+128),f
  3701  05B8                     l6154:	
  3702  05B8  30FF               	movlw	-1
  3703  05B9  07B2               	addwf	sprintf@prec^(0+128),f
  3704  05BA  1C03               	skipc
  3705  05BB  03B3               	decf	(sprintf@prec+1)^(0+128),f
  3706  05BC  0A32               	incf	sprintf@prec^(0+128),w
  3707  05BD  1903               	skipnz
  3708  05BE  0A33               	incf	(sprintf@prec+1)^(0+128),w
  3709  05BF  1903               	btfsc	3,2
  3710  05C0  2865               	goto	l6156
  3711  05C1  300A               	movlw	10
  3712  05C2  1283               	bcf	3,5	;RP0=0, select bank0
  3713  05C3  00A0               	movwf	?___llmod
  3714  05C4  01A1               	clrf	?___llmod+1
  3715  05C5  01A2               	clrf	?___llmod+2
  3716  05C6  01A3               	clrf	?___llmod+3
  3717  05C7  1683               	bsf	3,5	;RP0=1, select bank1
  3718  05C8  0832               	movf	sprintf@prec^(0+128),w
  3719  05C9  1283               	bcf	3,5	;RP0=0, select bank0
  3720  05CA  00D6               	movwf	??_sprintf
  3721  05CB  1003               	clrc
  3722  05CC  0DD6               	rlf	??_sprintf,f
  3723  05CD  1003               	clrc
  3724  05CE  0D56               	rlf	??_sprintf,w
  3725  05CF  3E4F               	addlw	low (_dpowers-__stringbase)
  3726  05D0  0084               	movwf	4
  3727  05D1  160A  118A  200A   	fcall	stringdir
      +       120A  118A         
  3728  05D6  00F0               	movwf	?___lldiv
  3729  05D7  160A  118A  200A   	fcall	stringdir
      +       120A  118A         
  3730  05DC  00F1               	movwf	?___lldiv+1
  3731  05DD  160A  118A  200A   	fcall	stringdir
      +       120A  118A         
  3732  05E2  00F2               	movwf	?___lldiv+2
  3733  05E3  160A  118A  200A   	fcall	stringdir
      +       120A  118A         
  3734  05E8  2767  120A  118A   	fcall	PL5	;call to abstracted procedure
  3735  05EB  26ED  120A  118A   	fcall	___lldiv
  3736  05EE  2772  120A  118A   	fcall	PL6	;call to abstracted procedure
  3737  05F1  2601  120A  118A   	fcall	___llmod
  3738  05F4  0820               	movf	?___llmod,w
  3739  05F5  3E30               	addlw	48
  3740  05F6  1683               	bsf	3,5	;RP0=1, select bank1
  3741  05F7  00B4               	movwf	sprintf@c^(0+128)
  3742  05F8  0831               	movf	sprintf@sp^(0+128),w
  3743  05F9  0084               	movwf	4
  3744  05FA  0834               	movf	sprintf@c^(0+128),w
  3745  05FB  2DB5               	goto	L5
  3746  05FC                     l6158:	
  3747  05FC  0831               	movf	sprintf@sp^(0+128),w
  3748  05FD  0084               	movwf	4
  3749  05FE  1383               	bcf	3,7	;select IRP bank0
  3750  05FF  0180               	clrf	0
  3751  0600  0008               	return
  3752  0601                     __end_of_sprintf:	
  3753  0601                     __ptext737:	
  3754 ;; =============== function ___ftneg ends ============
  3755                           
  3756                           
  3757 ;; *************** function ___llmod *****************
  3758 ;; Defined at:
  3759 ;;		line 5 in file "C:\Program Files (x86)\HI-TECH Software\PICC\9.82\sources\llmod.c"
  3760 ;; Parameters:    Size  Location     Type
  3761 ;;  divisor         4    0[BANK0 ] unsigned long 
  3762 ;;  dividend        4    4[BANK0 ] unsigned long 
  3763 ;; Auto vars:     Size  Location     Type
  3764 ;;  counter         1   13[COMMON] unsigned char 
  3765 ;; Return value:  Size  Location     Type
  3766 ;;                  4    0[BANK0 ] unsigned long 
  3767 ;; Registers used:
  3768 ;;		wreg, status,2, status,0
  3769 ;; Tracked objects:
  3770 ;;		On entry : 60/0
  3771 ;;		On exit  : 60/0
  3772 ;;		Unchanged: FFF9F/0
  3773 ;; Data sizes:     COMMON   BANK0   BANK1   BANK3   BANK2
  3774 ;;      Params:         0       8       0       0       0
  3775 ;;      Locals:         1       0       0       0       0
  3776 ;;      Temps:          0       0       0       0       0
  3777 ;;      Totals:         1       8       0       0       0
  3778 ;;Total ram usage:        9 bytes
  3779 ;; Hardware stack levels used:    1
  3780 ;; This function calls:
  3781 ;;		Nothing
  3782 ;; This function is called by:
  3783 ;;		_sprintf
  3784 ;; This function uses a non-reentrant model
  3785 ;;
  3786  0601                     ___llmod:	
  3787                           
  3788                           ; Regs used in ___llmod: [wreg+status,2+status,0]
  3789  0601  0823               	movf	___llmod@divisor+3,w
  3790  0602  0422               	iorwf	___llmod@divisor+2,w
  3791  0603  0421               	iorwf	___llmod@divisor+1,w
  3792  0604  0420               	iorwf	___llmod@divisor,w
  3793  0605  1903               	skipnz
  3794  0606  2E36               	goto	l5448
  3795  0607  01FD               	clrf	___llmod@counter
  3796  0608                     L12:	
  3797  0608  0AFD               	incf	___llmod@counter,f
  3798  0609  1BA3               	btfsc	___llmod@divisor+3,7
  3799  060A  2E11               	goto	l5440
  3800  060B  1003               	clrc
  3801  060C  0DA0               	rlf	___llmod@divisor,f
  3802  060D  0DA1               	rlf	___llmod@divisor+1,f
  3803  060E  0DA2               	rlf	___llmod@divisor+2,f
  3804  060F  0DA3               	rlf	___llmod@divisor+3,f
  3805  0610  2E08               	goto	L12
  3806  0611                     l5440:	
  3807  0611  0823               	movf	___llmod@divisor+3,w
  3808  0612  0227               	subwf	___llmod@dividend+3,w
  3809  0613  1D03               	skipz
  3810  0614  2E1F               	goto	u2485
  3811  0615  0822               	movf	___llmod@divisor+2,w
  3812  0616  0226               	subwf	___llmod@dividend+2,w
  3813  0617  1D03               	skipz
  3814  0618  2E1F               	goto	u2485
  3815  0619  0821               	movf	___llmod@divisor+1,w
  3816  061A  0225               	subwf	___llmod@dividend+1,w
  3817  061B  1D03               	skipz
  3818  061C  2E1F               	goto	u2485
  3819  061D  0820               	movf	___llmod@divisor,w
  3820  061E  0224               	subwf	___llmod@dividend,w
  3821  061F                     u2485:	
  3822  061F  1C03               	skipc
  3823  0620  2E30               	goto	L13
  3824  0621  0820               	movf	___llmod@divisor,w
  3825  0622  02A4               	subwf	___llmod@dividend,f
  3826  0623  0821               	movf	___llmod@divisor+1,w
  3827  0624  1C03               	skipc
  3828  0625  0F21               	incfsz	___llmod@divisor+1,w
  3829  0626  02A5               	subwf	___llmod@dividend+1,f
  3830  0627  0822               	movf	___llmod@divisor+2,w
  3831  0628  1C03               	skipc
  3832  0629  0F22               	incfsz	___llmod@divisor+2,w
  3833  062A  02A6               	subwf	___llmod@dividend+2,f
  3834  062B  0823               	movf	___llmod@divisor+3,w
  3835  062C  1C03               	skipc
  3836  062D  0F23               	incfsz	___llmod@divisor+3,w
  3837  062E  02A7               	subwf	___llmod@dividend+3,f
  3838  062F  1003               	clrc
  3839  0630                     L13:	
  3840  0630  0CA3               	rrf	___llmod@divisor+3,f
  3841  0631  0CA2               	rrf	___llmod@divisor+2,f
  3842  0632  0CA1               	rrf	___llmod@divisor+1,f
  3843  0633  0CA0               	rrf	___llmod@divisor,f
  3844  0634  0BFD               	decfsz	___llmod@counter,f
  3845  0635  2E11               	goto	l5440
  3846  0636                     l5448:	
  3847  0636  0827               	movf	___llmod@dividend+3,w
  3848  0637  00A3               	movwf	?___llmod+3
  3849  0638  0826               	movf	___llmod@dividend+2,w
  3850  0639  00A2               	movwf	?___llmod+2
  3851  063A  0825               	movf	___llmod@dividend+1,w
  3852  063B  00A1               	movwf	?___llmod+1
  3853  063C  0824               	movf	___llmod@dividend,w
  3854  063D  00A0               	movwf	?___llmod
  3855  063E  0008               	return
  3856  063F                     __end_of___llmod:	
  3857  063F                     __ptext735:	
  3858 ;; =============== function ___lldiv ends ============
  3859                           
  3860                           
  3861 ;; *************** function ___ftge *****************
  3862 ;; Defined at:
  3863 ;;		line 5 in file "C:\Program Files (x86)\HI-TECH Software\PICC\9.82\sources\ftge.c"
  3864 ;; Parameters:    Size  Location     Type
  3865 ;;  ff1             3    0[COMMON] float 
  3866 ;;  ff2             3    3[COMMON] float 
  3867 ;; Auto vars:     Size  Location     Type
  3868 ;;		None
  3869 ;; Return value:  Size  Location     Type
  3870 ;;		None               void
  3871 ;; Registers used:
  3872 ;;		wreg, status,2, status,0
  3873 ;; Tracked objects:
  3874 ;;		On entry : 60/20
  3875 ;;		On exit  : 60/20
  3876 ;;		Unchanged: FFF9F/0
  3877 ;; Data sizes:     COMMON   BANK0   BANK1   BANK3   BANK2
  3878 ;;      Params:         6       0       0       0       0
  3879 ;;      Locals:         0       0       0       0       0
  3880 ;;      Temps:          0       0       0       0       0
  3881 ;;      Totals:         6       0       0       0       0
  3882 ;;Total ram usage:        6 bytes
  3883 ;; Hardware stack levels used:    1
  3884 ;; This function calls:
  3885 ;;		Nothing
  3886 ;; This function is called by:
  3887 ;;		_sprintf
  3888 ;; This function uses a non-reentrant model
  3889 ;;
  3890  063F                     ___ftge:	
  3891                           
  3892                           ; Regs used in ___ftge: [wreg+status,2+status,0]
  3893  063F  1FF2               	btfss	___ftge@ff1+2,7
  3894  0640  2E4E               	goto	l5464
  3895  0641  0870               	movf	___ftge@ff1,w
  3896  0642  3C00               	sublw	0
  3897  0643  00F0               	movwf	___ftge@ff1
  3898  0644  0871               	movf	___ftge@ff1+1,w
  3899  0645  1C03               	skipc
  3900  0646  0F71               	incfsz	___ftge@ff1+1,w
  3901  0647  3C00               	sublw	0
  3902  0648  00F1               	movwf	___ftge@ff1+1
  3903  0649  0872               	movf	___ftge@ff1+2,w
  3904  064A  1C03               	skipc
  3905  064B  0F72               	incfsz	___ftge@ff1+2,w
  3906  064C  3C80               	sublw	128
  3907  064D  00F2               	movwf	___ftge@ff1+2
  3908  064E                     l5464:	
  3909  064E  1FF5               	btfss	___ftge@ff2+2,7
  3910  064F  2E5D               	goto	l5468
  3911  0650  0873               	movf	___ftge@ff2,w
  3912  0651  3C00               	sublw	0
  3913  0652  00F3               	movwf	___ftge@ff2
  3914  0653  0874               	movf	___ftge@ff2+1,w
  3915  0654  1C03               	skipc
  3916  0655  0F74               	incfsz	___ftge@ff2+1,w
  3917  0656  3C00               	sublw	0
  3918  0657  00F4               	movwf	___ftge@ff2+1
  3919  0658  0875               	movf	___ftge@ff2+2,w
  3920  0659  1C03               	skipc
  3921  065A  0F75               	incfsz	___ftge@ff2+2,w
  3922  065B  3C80               	sublw	128
  3923  065C  00F5               	movwf	___ftge@ff2+2
  3924  065D                     l5468:	
  3925  065D  3080               	movlw	128
  3926  065E  06F2               	xorwf	___ftge@ff1+2,f
  3927  065F  06F5               	xorwf	___ftge@ff2+2,f
  3928  0660  0875               	movf	___ftge@ff2+2,w
  3929  0661  0272               	subwf	___ftge@ff1+2,w
  3930  0662  1D03               	skipz
  3931  0663  0008               	return
  3932  0664  0874               	movf	___ftge@ff2+1,w
  3933  0665  0271               	subwf	___ftge@ff1+1,w
  3934  0666  1D03               	skipz
  3935  0667  0008               	return
  3936  0668  0873               	movf	___ftge@ff2,w
  3937  0669  0270               	subwf	___ftge@ff1,w
  3938  066A  0008               	return
  3939  066B                     __end_of___ftge:	
  3940  066B                     __ptext747:	
  3941 ;; =============== function __tdiv_to_l_ ends ============
  3942                           
  3943                           
  3944 ;; *************** function _isdigit *****************
  3945 ;; Defined at:
  3946 ;;		line 13 in file "C:\Program Files (x86)\HI-TECH Software\PICC\9.82\sources\isdigit.c"
  3947 ;; Parameters:    Size  Location     Type
  3948 ;;  c               1    wreg     unsigned char 
  3949 ;; Auto vars:     Size  Location     Type
  3950 ;;  c               1    1[COMMON] unsigned char 
  3951 ;; Return value:  Size  Location     Type
  3952 ;;		None               void
  3953 ;; Registers used:
  3954 ;;		wreg, status,2, status,0
  3955 ;; Tracked objects:
  3956 ;;		On entry : 60/0
  3957 ;;		On exit  : 60/0
  3958 ;;		Unchanged: FFF9F/0
  3959 ;; Data sizes:     COMMON   BANK0   BANK1   BANK3   BANK2
  3960 ;;      Params:         0       0       0       0       0
  3961 ;;      Locals:         2       0       0       0       0
  3962 ;;      Temps:          0       0       0       0       0
  3963 ;;      Totals:         2       0       0       0       0
  3964 ;;Total ram usage:        2 bytes
  3965 ;; Hardware stack levels used:    1
  3966 ;; This function calls:
  3967 ;;		Nothing
  3968 ;; This function is called by:
  3969 ;;		_sprintf
  3970 ;; This function uses a non-reentrant model
  3971 ;;
  3972  066B                     _isdigit:	
  3973                           
  3974                           ; Regs used in _isdigit: [wreg+status,2+status,0]
  3975                           ;isdigit@c stored from wreg
  3976  066B  00F1               	movwf	isdigit@c
  3977  066C  303A               	movlw	58
  3978  066D  01F0               	clrf	_isdigit$2459
  3979  066E  0271               	subwf	isdigit@c,w
  3980  066F  1803               	skipnc
  3981  0670  2E77               	goto	l5150
  3982  0671  3030               	movlw	48
  3983  0672  0271               	subwf	isdigit@c,w
  3984  0673  1C03               	skipc
  3985  0674  2E77               	goto	l5150
  3986  0675  01F0               	clrf	_isdigit$2459
  3987  0676  0AF0               	incf	_isdigit$2459,f
  3988  0677                     l5150:	
  3989  0677  0C70               	rrf	_isdigit$2459,w
  3990  0678  0008               	return
  3991  0679                     __end_of_isdigit:	
  3992  0679                     __ptext743:	
  3993 ;; =============== function ___lbdiv ends ============
  3994                           
  3995                           
  3996 ;; *************** function ___wmul *****************
  3997 ;; Defined at:
  3998 ;;		line 3 in file "C:\Program Files (x86)\HI-TECH Software\PICC\9.82\sources\wmul.c"
  3999 ;; Parameters:    Size  Location     Type
  4000 ;;  multiplier      2    0[COMMON] unsigned int 
  4001 ;;  multiplicand    2    2[COMMON] unsigned int 
  4002 ;; Auto vars:     Size  Location     Type
  4003 ;;  product         2    4[COMMON] unsigned int 
  4004 ;; Return value:  Size  Location     Type
  4005 ;;                  2    0[COMMON] unsigned int 
  4006 ;; Registers used:
  4007 ;;		wreg, status,2, status,0
  4008 ;; Tracked objects:
  4009 ;;		On entry : 60/20
  4010 ;;		On exit  : 60/20
  4011 ;;		Unchanged: FFF9F/0
  4012 ;; Data sizes:     COMMON   BANK0   BANK1   BANK3   BANK2
  4013 ;;      Params:         4       0       0       0       0
  4014 ;;      Locals:         2       0       0       0       0
  4015 ;;      Temps:          0       0       0       0       0
  4016 ;;      Totals:         6       0       0       0       0
  4017 ;;Total ram usage:        6 bytes
  4018 ;; Hardware stack levels used:    1
  4019 ;; This function calls:
  4020 ;;		Nothing
  4021 ;; This function is called by:
  4022 ;;		_fround
  4023 ;;		_scale
  4024 ;;		_sprintf
  4025 ;; This function uses a non-reentrant model
  4026 ;;
  4027  0679                     ___wmul:	
  4028                           
  4029                           ; Regs used in ___wmul: [wreg+status,2+status,0]
  4030  0679  01F4               	clrf	___wmul@product
  4031  067A  01F5               	clrf	___wmul@product+1
  4032  067B                     l5266:	
  4033  067B  1C70               	btfss	___wmul@multiplier,0
  4034  067C  2E83               	goto	l5270
  4035  067D  0872               	movf	___wmul@multiplicand,w
  4036  067E  07F4               	addwf	___wmul@product,f
  4037  067F  1803               	skipnc
  4038  0680  0AF5               	incf	___wmul@product+1,f
  4039  0681  0873               	movf	___wmul@multiplicand+1,w
  4040  0682  07F5               	addwf	___wmul@product+1,f
  4041  0683                     l5270:	
  4042  0683  1003               	clrc
  4043  0684  0DF2               	rlf	___wmul@multiplicand,f
  4044  0685  0DF3               	rlf	___wmul@multiplicand+1,f
  4045  0686  1003               	clrc
  4046  0687  0CF1               	rrf	___wmul@multiplier+1,f
  4047  0688  0CF0               	rrf	___wmul@multiplier,f
  4048  0689  0871               	movf	___wmul@multiplier+1,w
  4049  068A  0470               	iorwf	___wmul@multiplier,w
  4050  068B  1D03               	skipz
  4051  068C  2E7B               	goto	l5266
  4052  068D  0875               	movf	___wmul@product+1,w
  4053  068E  00F1               	movwf	?___wmul+1
  4054  068F  0874               	movf	___wmul@product,w
  4055  0690  00F0               	movwf	?___wmul
  4056  0691  0008               	return
  4057  0692                     __end_of___wmul:	
  4058  0692                     __ptext739:	
  4059 ;; =============== function ___awdiv ends ============
  4060                           
  4061                           
  4062 ;; *************** function ___fttol *****************
  4063 ;; Defined at:
  4064 ;;		line 45 in file "C:\Program Files (x86)\HI-TECH Software\PICC\9.82\sources\fttol.c"
  4065 ;; Parameters:    Size  Location     Type
  4066 ;;  f1              3    0[BANK0 ] float 
  4067 ;; Auto vars:     Size  Location     Type
  4068 ;;  lval            4    8[BANK0 ] unsigned long 
  4069 ;;  exp1            1   12[BANK0 ] unsigned char 
  4070 ;;  sign1           1    7[BANK0 ] unsigned char 
  4071 ;; Return value:  Size  Location     Type
  4072 ;;                  4    0[BANK0 ] long 
  4073 ;; Registers used:
  4074 ;;		wreg, status,2, status,0
  4075 ;; Tracked objects:
  4076 ;;		On entry : 60/0
  4077 ;;		On exit  : 60/0
  4078 ;;		Unchanged: FFF9F/0
  4079 ;; Data sizes:     COMMON   BANK0   BANK1   BANK3   BANK2
  4080 ;;      Params:         0       4       0       0       0
  4081 ;;      Locals:         0       6       0       0       0
  4082 ;;      Temps:          0       3       0       0       0
  4083 ;;      Totals:         0      13       0       0       0
  4084 ;;Total ram usage:       13 bytes
  4085 ;; Hardware stack levels used:    1
  4086 ;; This function calls:
  4087 ;;		Nothing
  4088 ;; This function is called by:
  4089 ;;		_sprintf
  4090 ;; This function uses a non-reentrant model
  4091 ;;
  4092  0692                     ___fttol:	
  4093                           
  4094                           ; Regs used in ___fttol: [wreg+status,2+status,0]
  4095  0692  27E2  120A  118A   	fcall	PL29	;call to abstracted procedure
  4096  0695  1003               	clrc
  4097  0696  0D25               	rlf	??___fttol+1,w
  4098  0697  0D26               	rlf	??___fttol+2,w
  4099  0698  00AC               	movwf	___fttol@exp1
  4100  0699  08AC               	movf	___fttol@exp1,f
  4101  069A  1D03               	skipz
  4102  069B  2EA1               	goto	l5354
  4103  069C                     l5352:	
  4104  069C  01A0               	clrf	?___fttol
  4105  069D  01A1               	clrf	?___fttol+1
  4106  069E  01A2               	clrf	?___fttol+2
  4107  069F  01A3               	clrf	?___fttol+3
  4108  06A0  0008               	return
  4109  06A1                     l5354:	
  4110  06A1  27E2  120A  118A   	fcall	PL29	;call to abstracted procedure
  4111  06A4  3017               	movlw	23
  4112  06A5                     u2325:	
  4113  06A5  1003               	clrc
  4114  06A6  0CA6               	rrf	??___fttol+2,f
  4115  06A7  0CA5               	rrf	??___fttol+1,f
  4116  06A8  0CA4               	rrf	??___fttol,f
  4117  06A9  3EFF               	addlw	-1
  4118  06AA  1D03               	skipz
  4119  06AB  2EA5               	goto	u2325
  4120  06AC  0824               	movf	??___fttol,w
  4121  06AD  00A7               	movwf	___fttol@sign1
  4122  06AE  17A1               	bsf	___fttol@f1+1,7
  4123  06AF  01A2               	clrf	___fttol@f1+2
  4124  06B0  0820               	movf	___fttol@f1,w
  4125  06B1  00A8               	movwf	___fttol@lval
  4126  06B2  0821               	movf	___fttol@f1+1,w
  4127  06B3  00A9               	movwf	___fttol@lval+1
  4128  06B4  0822               	movf	___fttol@f1+2,w
  4129  06B5  00AA               	movwf	___fttol@lval+2
  4130  06B6  308E               	movlw	142
  4131  06B7  01AB               	clrf	___fttol@lval+3
  4132  06B8  02AC               	subwf	___fttol@exp1,f
  4133  06B9  1FAC               	btfss	___fttol@exp1,7
  4134  06BA  2EC8               	goto	l5374
  4135  06BB  082C               	movf	___fttol@exp1,w
  4136  06BC  3A80               	xorlw	128
  4137  06BD  3E8F               	addlw	143
  4138  06BE  1C03               	btfss	3,0
  4139  06BF  2E9C               	goto	l5352
  4140  06C0                     l5370:	
  4141  06C0  1003               	clrc
  4142  06C1  0CAB               	rrf	___fttol@lval+3,f
  4143  06C2  0CAA               	rrf	___fttol@lval+2,f
  4144  06C3  0CA9               	rrf	___fttol@lval+1,f
  4145  06C4  0CA8               	rrf	___fttol@lval,f
  4146  06C5  0FAC               	incfsz	___fttol@exp1,f
  4147  06C6  2EC0               	goto	l5370
  4148  06C7  2ED6               	goto	l5380
  4149  06C8                     l5374:	
  4150  06C8  3018               	movlw	24
  4151  06C9  022C               	subwf	___fttol@exp1,w
  4152  06CA  1803               	btfsc	3,0
  4153  06CB  2E9C               	goto	l5352
  4154  06CC                     l2429:	
  4155  06CC  08AC               	movf	___fttol@exp1,f
  4156  06CD  1903               	btfsc	3,2
  4157  06CE  2ED6               	goto	l5380
  4158  06CF  1003               	clrc
  4159  06D0  0DA8               	rlf	___fttol@lval,f
  4160  06D1  0DA9               	rlf	___fttol@lval+1,f
  4161  06D2  0DAA               	rlf	___fttol@lval+2,f
  4162  06D3  0DAB               	rlf	___fttol@lval+3,f
  4163  06D4  03AC               	decf	___fttol@exp1,f
  4164  06D5  2ECC               	goto	l2429
  4165  06D6                     l5380:	
  4166  06D6  0827               	movf	___fttol@sign1,w
  4167  06D7  1903               	btfsc	3,2
  4168  06D8  2EE4               	goto	l5384
  4169  06D9  09A8               	comf	___fttol@lval,f
  4170  06DA  09A9               	comf	___fttol@lval+1,f
  4171  06DB  09AA               	comf	___fttol@lval+2,f
  4172  06DC  09AB               	comf	___fttol@lval+3,f
  4173  06DD  0AA8               	incf	___fttol@lval,f
  4174  06DE  1903               	skipnz
  4175  06DF  0AA9               	incf	___fttol@lval+1,f
  4176  06E0  1903               	skipnz
  4177  06E1  0AAA               	incf	___fttol@lval+2,f
  4178  06E2  1903               	skipnz
  4179  06E3  0AAB               	incf	___fttol@lval+3,f
  4180  06E4                     l5384:	
  4181  06E4  082B               	movf	___fttol@lval+3,w
  4182  06E5  00A3               	movwf	?___fttol+3
  4183  06E6  082A               	movf	___fttol@lval+2,w
  4184  06E7  00A2               	movwf	?___fttol+2
  4185  06E8  0829               	movf	___fttol@lval+1,w
  4186  06E9  00A1               	movwf	?___fttol+1
  4187  06EA  0828               	movf	___fttol@lval,w
  4188  06EB  00A0               	movwf	?___fttol
  4189  06EC  0008               	return
  4190  06ED                     __end_of___fttol:	
  4191  06ED                     __ptext734:	
  4192 ;; =============== function ___awmod ends ============
  4193                           
  4194                           
  4195 ;; *************** function ___lldiv *****************
  4196 ;; Defined at:
  4197 ;;		line 5 in file "C:\Program Files (x86)\HI-TECH Software\PICC\9.82\sources\lldiv.c"
  4198 ;; Parameters:    Size  Location     Type
  4199 ;;  divisor         4    0[COMMON] unsigned long 
  4200 ;;  dividend        4    4[COMMON] unsigned long 
  4201 ;; Auto vars:     Size  Location     Type
  4202 ;;  quotient        4    8[COMMON] unsigned long 
  4203 ;;  counter         1   12[COMMON] unsigned char 
  4204 ;; Return value:  Size  Location     Type
  4205 ;;                  4    0[COMMON] unsigned long 
  4206 ;; Registers used:
  4207 ;;		wreg, status,2, status,0
  4208 ;; Tracked objects:
  4209 ;;		On entry : 60/20
  4210 ;;		On exit  : 60/20
  4211 ;;		Unchanged: FFF9F/0
  4212 ;; Data sizes:     COMMON   BANK0   BANK1   BANK3   BANK2
  4213 ;;      Params:         8       0       0       0       0
  4214 ;;      Locals:         5       0       0       0       0
  4215 ;;      Temps:          0       0       0       0       0
  4216 ;;      Totals:        13       0       0       0       0
  4217 ;;Total ram usage:       13 bytes
  4218 ;; Hardware stack levels used:    1
  4219 ;; This function calls:
  4220 ;;		Nothing
  4221 ;; This function is called by:
  4222 ;;		_sprintf
  4223 ;; This function uses a non-reentrant model
  4224 ;;
  4225  06ED                     ___lldiv:	
  4226                           
  4227                           ; Regs used in ___lldiv: [wreg+status,2+status,0]
  4228  06ED  01F8               	clrf	___lldiv@quotient
  4229  06EE  01F9               	clrf	___lldiv@quotient+1
  4230  06EF  01FA               	clrf	___lldiv@quotient+2
  4231  06F0  01FB               	clrf	___lldiv@quotient+3
  4232  06F1  0873               	movf	___lldiv@divisor+3,w
  4233  06F2  0472               	iorwf	___lldiv@divisor+2,w
  4234  06F3  0471               	iorwf	___lldiv@divisor+1,w
  4235  06F4  0470               	iorwf	___lldiv@divisor,w
  4236  06F5  1903               	skipnz
  4237  06F6  2F2C               	goto	l5502
  4238  06F7  01FC               	clrf	___lldiv@counter
  4239  06F8                     L9:	
  4240  06F8  0AFC               	incf	___lldiv@counter,f
  4241  06F9  1BF3               	btfsc	___lldiv@divisor+3,7
  4242  06FA  2F01               	goto	l5490
  4243  06FB  1003               	clrc
  4244  06FC  0DF0               	rlf	___lldiv@divisor,f
  4245  06FD  0DF1               	rlf	___lldiv@divisor+1,f
  4246  06FE  0DF2               	rlf	___lldiv@divisor+2,f
  4247  06FF  0DF3               	rlf	___lldiv@divisor+3,f
  4248  0700  2EF8               	goto	L9
  4249  0701                     l5490:	
  4250  0701  1003               	clrc
  4251  0702  0DF8               	rlf	___lldiv@quotient,f
  4252  0703  0DF9               	rlf	___lldiv@quotient+1,f
  4253  0704  0DFA               	rlf	___lldiv@quotient+2,f
  4254  0705  0DFB               	rlf	___lldiv@quotient+3,f
  4255  0706  0873               	movf	___lldiv@divisor+3,w
  4256  0707  0277               	subwf	___lldiv@dividend+3,w
  4257  0708  1D03               	skipz
  4258  0709  2F14               	goto	u2565
  4259  070A  0872               	movf	___lldiv@divisor+2,w
  4260  070B  0276               	subwf	___lldiv@dividend+2,w
  4261  070C  1D03               	skipz
  4262  070D  2F14               	goto	u2565
  4263  070E  0871               	movf	___lldiv@divisor+1,w
  4264  070F  0275               	subwf	___lldiv@dividend+1,w
  4265  0710  1D03               	skipz
  4266  0711  2F14               	goto	u2565
  4267  0712  0870               	movf	___lldiv@divisor,w
  4268  0713  0274               	subwf	___lldiv@dividend,w
  4269  0714                     u2565:	
  4270  0714  1C03               	skipc
  4271  0715  2F26               	goto	L10
  4272  0716  0870               	movf	___lldiv@divisor,w
  4273  0717  02F4               	subwf	___lldiv@dividend,f
  4274  0718  0871               	movf	___lldiv@divisor+1,w
  4275  0719  1C03               	skipc
  4276  071A  0F71               	incfsz	___lldiv@divisor+1,w
  4277  071B  02F5               	subwf	___lldiv@dividend+1,f
  4278  071C  0872               	movf	___lldiv@divisor+2,w
  4279  071D  1C03               	skipc
  4280  071E  0F72               	incfsz	___lldiv@divisor+2,w
  4281  071F  02F6               	subwf	___lldiv@dividend+2,f
  4282  0720  0873               	movf	___lldiv@divisor+3,w
  4283  0721  1C03               	skipc
  4284  0722  0F73               	incfsz	___lldiv@divisor+3,w
  4285  0723  02F7               	subwf	___lldiv@dividend+3,f
  4286  0724  1478               	bsf	___lldiv@quotient,0
  4287  0725  1003               	clrc
  4288  0726                     L10:	
  4289  0726  0CF3               	rrf	___lldiv@divisor+3,f
  4290  0727  0CF2               	rrf	___lldiv@divisor+2,f
  4291  0728  0CF1               	rrf	___lldiv@divisor+1,f
  4292  0729  0CF0               	rrf	___lldiv@divisor,f
  4293  072A  0BFC               	decfsz	___lldiv@counter,f
  4294  072B  2F01               	goto	l5490
  4295  072C                     l5502:	
  4296  072C  087B               	movf	___lldiv@quotient+3,w
  4297  072D  00F3               	movwf	?___lldiv+3
  4298  072E  087A               	movf	___lldiv@quotient+2,w
  4299  072F  00F2               	movwf	?___lldiv+2
  4300  0730  0879               	movf	___lldiv@quotient+1,w
  4301  0731  00F1               	movwf	?___lldiv+1
  4302  0732  0878               	movf	___lldiv@quotient,w
  4303  0733  00F0               	movwf	?___lldiv
  4304  0734  0008               	return
  4305  0735                     __end_of___lldiv:	
  4306  0735                     __ptext736:	
  4307 ;; =============== function ___ftge ends ============
  4308                           
  4309                           
  4310 ;; *************** function ___ftneg *****************
  4311 ;; Defined at:
  4312 ;;		line 16 in file "C:\Program Files (x86)\HI-TECH Software\PICC\9.82\sources\ftneg.c"
  4313 ;; Parameters:    Size  Location     Type
  4314 ;;  f1              3    0[COMMON] float 
  4315 ;; Auto vars:     Size  Location     Type
  4316 ;;		None
  4317 ;; Return value:  Size  Location     Type
  4318 ;;                  3    0[COMMON] float 
  4319 ;; Registers used:
  4320 ;;		wreg
  4321 ;; Tracked objects:
  4322 ;;		On entry : 160/20
  4323 ;;		On exit  : 160/20
  4324 ;;		Unchanged: FFE9F/0
  4325 ;; Data sizes:     COMMON   BANK0   BANK1   BANK3   BANK2
  4326 ;;      Params:         3       0       0       0       0
  4327 ;;      Locals:         0       0       0       0       0
  4328 ;;      Temps:          0       0       0       0       0
  4329 ;;      Totals:         3       0       0       0       0
  4330 ;;Total ram usage:        3 bytes
  4331 ;; Hardware stack levels used:    1
  4332 ;; This function calls:
  4333 ;;		Nothing
  4334 ;; This function is called by:
  4335 ;;		_sprintf
  4336 ;; This function uses a non-reentrant model
  4337 ;;
  4338  0735                     ___ftneg:	
  4339                           
  4340                           ; Regs used in ___ftneg: [wreg]
  4341  0735  0872               	movf	___ftneg@f1+2,w
  4342  0736  0471               	iorwf	___ftneg@f1+1,w
  4343  0737  0470               	iorwf	___ftneg@f1,w
  4344  0738  1903               	skipnz
  4345  0739  0008               	return
  4346  073A  3080               	movlw	128
  4347  073B  06F2               	xorwf	___ftneg@f1+2,f
  4348  073C  0008               	return
  4349  073D                     __end_of___ftneg:	
  4350  073D                     __ptext722:	
  4351 ;; =============== function _lcd_clear ends ============
  4352                           
  4353                           
  4354 ;; *************** function ___ftsub *****************
  4355 ;; Defined at:
  4356 ;;		line 17 in file "C:\Program Files (x86)\HI-TECH Software\PICC\9.82\sources\ftsub.c"
  4357 ;; Parameters:    Size  Location     Type
  4358 ;;  f2              3   40[BANK0 ] float 
  4359 ;;  f1              3   43[BANK0 ] float 
  4360 ;; Auto vars:     Size  Location     Type
  4361 ;;		None
  4362 ;; Return value:  Size  Location     Type
  4363 ;;                  3   40[BANK0 ] float 
  4364 ;; Registers used:
  4365 ;;		wreg, status,2, status,0, pclath, cstack
  4366 ;; Tracked objects:
  4367 ;;		On entry : 60/0
  4368 ;;		On exit  : 60/0
  4369 ;;		Unchanged: FFF9F/0
  4370 ;; Data sizes:     COMMON   BANK0   BANK1   BANK3   BANK2
  4371 ;;      Params:         0       6       0       0       0
  4372 ;;      Locals:         0       0       0       0       0
  4373 ;;      Temps:          0       0       0       0       0
  4374 ;;      Totals:         0       6       0       0       0
  4375 ;;Total ram usage:        6 bytes
  4376 ;; Hardware stack levels used:    1
  4377 ;; Hardware stack levels required when called:    2
  4378 ;; This function calls:
  4379 ;;		___ftadd
  4380 ;; This function is called by:
  4381 ;;		_sprintf
  4382 ;; This function uses a non-reentrant model
  4383 ;;
  4384  073D                     ___ftsub:	
  4385                           
  4386                           ; Regs used in ___ftsub: [wreg+status,2+status,0+pclath+cstack]
  4387  073D  3080               	movlw	128
  4388  073E  06CA               	xorwf	___ftsub@f2+2,f
  4389  073F  084B               	movf	___ftsub@f1,w
  4390  0740  00BC               	movwf	?___ftadd
  4391  0741  084C               	movf	___ftsub@f1+1,w
  4392  0742  00BD               	movwf	?___ftadd+1
  4393  0743  084D               	movf	___ftsub@f1+2,w
  4394  0744  00BE               	movwf	?___ftadd+2
  4395  0745  0848               	movf	___ftsub@f2,w
  4396  0746  00BF               	movwf	?___ftadd+3
  4397  0747  0849               	movf	___ftsub@f2+1,w
  4398  0748  00C0               	movwf	?___ftadd+4
  4399  0749  084A               	movf	___ftsub@f2+2,w
  4400  074A  00C1               	movwf	?___ftadd+5
  4401  074B  160A  118A  273E   	fcall	___ftadd
  4402  074E  083C               	movf	?___ftadd,w
  4403  074F  00C8               	movwf	?___ftsub
  4404  0750  083D               	movf	?___ftadd+1,w
  4405  0751  00C9               	movwf	?___ftsub+1
  4406  0752  083E               	movf	?___ftadd+2,w
  4407  0753  00CA               	movwf	?___ftsub+2
  4408  0754  0008               	return
  4409  0755                     __end_of___ftsub:	
  4410  0755                     PL3:	
  4411  0755  0834               	movf	sprintf@c^(0+128),w
  4412  0756  1283               	bcf	3,5	;RP0=0, select bank0
  4413  0757  00D6               	movwf	??_sprintf
  4414  0758  1003               	clrc
  4415  0759  0DD6               	rlf	??_sprintf,f
  4416  075A  1003               	clrc
  4417  075B  0D56               	rlf	??_sprintf,w
  4418  075C  3E4F               	addlw	low (_dpowers-__stringbase)
  4419  075D  0084               	movwf	4
  4420  075E  0008               	return
  4421  075F                     PL4:	
  4422  075F  300A               	movlw	10
  4423  0760  1283               	bcf	3,5	;RP0=0, select bank0
  4424  0761  00A0               	movwf	?___llmod
  4425  0762  01A1               	clrf	?___llmod+1
  4426  0763  01A2               	clrf	?___llmod+2
  4427  0764  01A3               	clrf	?___llmod+3
  4428  0765  1683               	bsf	3,5	;RP0=1, select bank1
  4429  0766  0008               	return
  4430  0767                     PL5:	
  4431  0767  00F3               	movwf	?___lldiv+3
  4432  0768  1683               	bsf	3,5	;RP0=1, select bank1
  4433  0769  0838               	movf	(sprintf@_val+3)^(0+128),w
  4434  076A  00F7               	movwf	?___lldiv+7
  4435  076B  0837               	movf	(sprintf@_val+2)^(0+128),w
  4436  076C  00F6               	movwf	?___lldiv+6
  4437  076D  0836               	movf	(sprintf@_val+1)^(0+128),w
  4438  076E  00F5               	movwf	?___lldiv+5
  4439  076F  0835               	movf	sprintf@_val^(0+128),w
  4440  0770  00F4               	movwf	?___lldiv+4
  4441  0771  0008               	return
  4442  0772                     PL6:	
  4443  0772  0873               	movf	?___lldiv+3,w
  4444  0773  1283               	bcf	3,5	;RP0=0, select bank0
  4445  0774  00A7               	movwf	?___llmod+7
  4446  0775  0872               	movf	?___lldiv+2,w
  4447  0776  00A6               	movwf	?___llmod+6
  4448  0777  0871               	movf	?___lldiv+1,w
  4449  0778  00A5               	movwf	?___llmod+5
  4450  0779  0870               	movf	?___lldiv,w
  4451  077A  00A4               	movwf	?___llmod+4
  4452  077B  0008               	return
  4453  077C                     PL7:	
  4454  077C  0823               	movf	?___fttol+3,w
  4455  077D  1683               	bsf	3,5	;RP0=1, select bank1
  4456  077E  00B8               	movwf	(sprintf@_val+3)^(0+128)
  4457  077F  1283               	bcf	3,5	;RP0=0, select bank0
  4458  0780  0822               	movf	?___fttol+2,w
  4459  0781  1683               	bsf	3,5	;RP0=1, select bank1
  4460  0782  00B7               	movwf	(sprintf@_val+2)^(0+128)
  4461  0783  1283               	bcf	3,5	;RP0=0, select bank0
  4462  0784  0821               	movf	?___fttol+1,w
  4463  0785  1683               	bsf	3,5	;RP0=1, select bank1
  4464  0786  00B6               	movwf	(sprintf@_val+1)^(0+128)
  4465  0787  1283               	bcf	3,5	;RP0=0, select bank0
  4466  0788  0820               	movf	?___fttol,w
  4467  0789  0008               	return
  4468  078A                     PL12:	
  4469  078A  083C               	movf	?_scale,w
  4470  078B  1683               	bsf	3,5	;RP0=1, select bank1
  4471  078C  00A5               	movwf	sprintf@integ^(0+128)
  4472  078D  1283               	bcf	3,5	;RP0=0, select bank0
  4473  078E  083D               	movf	?_scale+1,w
  4474  078F  1683               	bsf	3,5	;RP0=1, select bank1
  4475  0790  00A6               	movwf	(sprintf@integ+1)^(0+128)
  4476  0791  1283               	bcf	3,5	;RP0=0, select bank0
  4477  0792  083E               	movf	?_scale+2,w
  4478  0793  1683               	bsf	3,5	;RP0=1, select bank1
  4479  0794  00A7               	movwf	(sprintf@integ+2)^(0+128)
  4480  0795  082E               	movf	sprintf@fval^(0+128),w
  4481  0796  0008               	return
  4482  0797                     PL13:	
  4483  0797  0770               	addwf	?___wmul,w
  4484  0798  00D6               	movwf	??_sprintf
  4485  0799  3000               	movlw	0
  4486  079A  1803               	skipnc
  4487  079B  3001               	movlw	1
  4488  079C  0771               	addwf	?___wmul+1,w
  4489  079D  00D7               	movwf	??_sprintf+1
  4490  079E  0856               	movf	??_sprintf,w
  4491  079F  3ED0               	addlw	208
  4492  07A0  1683               	bsf	3,5	;RP0=1, select bank1
  4493  07A1  0008               	return
  4494  07A2                     PL14:	
  4495  07A2  1283               	bcf	3,5	;RP0=0, select bank0
  4496  07A3  00A0               	movwf	?___fttol
  4497  07A4  1683               	bsf	3,5	;RP0=1, select bank1
  4498  07A5  082F               	movf	(sprintf@fval+1)^(0+128),w
  4499  07A6  1283               	bcf	3,5	;RP0=0, select bank0
  4500  07A7  00A1               	movwf	?___fttol+1
  4501  07A8  1683               	bsf	3,5	;RP0=1, select bank1
  4502  07A9  0830               	movf	(sprintf@fval+2)^(0+128),w
  4503  07AA  1283               	bcf	3,5	;RP0=0, select bank0
  4504  07AB  00A2               	movwf	?___fttol+2
  4505  07AC  0008               	return
  4506  07AD                     PL15:	
  4507  07AD  1283               	bcf	3,5	;RP0=0, select bank0
  4508  07AE  00AD               	movwf	?___ftmul
  4509  07AF  1683               	bsf	3,5	;RP0=1, select bank1
  4510  07B0  082F               	movf	(sprintf@fval+1)^(0+128),w
  4511  07B1  1283               	bcf	3,5	;RP0=0, select bank0
  4512  07B2  00AE               	movwf	?___ftmul+1
  4513  07B3  1683               	bsf	3,5	;RP0=1, select bank1
  4514  07B4  0830               	movf	(sprintf@fval+2)^(0+128),w
  4515  07B5  1283               	bcf	3,5	;RP0=0, select bank0
  4516  07B6  00AF               	movwf	?___ftmul+2
  4517  07B7  0008               	return
  4518  07B8                     PL19:	
  4519  07B8  1283               	bcf	3,5	;RP0=0, select bank0
  4520  07B9  00D6               	movwf	??_sprintf
  4521  07BA  01D7               	clrf	??_sprintf+1
  4522  07BB  1BD6               	btfsc	??_sprintf,7
  4523  07BC  03D7               	decf	??_sprintf+1,f
  4524  07BD  0857               	movf	??_sprintf+1,w
  4525  07BE  3A80               	xorlw	128
  4526  07BF  00D8               	movwf	??_sprintf+2
  4527  07C0  1683               	bsf	3,5	;RP0=1, select bank1
  4528  07C1  0008               	return
  4529  07C2                     PL20:	
  4530  07C2  0820               	movf	?___llmod,w
  4531  07C3  3E30               	addlw	48
  4532  07C4  00D7               	movwf	??_sprintf+1
  4533  07C5  1683               	bsf	3,5	;RP0=1, select bank1
  4534  07C6  0831               	movf	sprintf@sp^(0+128),w
  4535  07C7  0084               	movwf	4
  4536  07C8  1283               	bcf	3,5	;RP0=0, select bank0
  4537  07C9  0857               	movf	??_sprintf+1,w
  4538  07CA  0008               	return
  4539  07CB                     PL21:	
  4540  07CB  1303               	bcf	3,6	;RP1=0, select bank1
  4541  07CC  0834               	movf	sprintf@c^(0+128),w
  4542  07CD  1283               	bcf	3,5	;RP0=0, select bank0
  4543  07CE  00D6               	movwf	??_sprintf
  4544  07CF  01D7               	clrf	??_sprintf+1
  4545  07D0  1BD6               	btfsc	??_sprintf,7
  4546  07D1  03D7               	decf	??_sprintf+1,f
  4547  07D2  1683               	bsf	3,5	;RP0=1, select bank1
  4548  07D3  0008               	return
  4549  07D4                     PL22:	
  4550  07D4  0825               	movf	sprintf@integ^(0+128),w
  4551  07D5  00F0               	movwf	?___ftge
  4552  07D6  0826               	movf	(sprintf@integ+1)^(0+128),w
  4553  07D7  00F1               	movwf	?___ftge+1
  4554  07D8  0827               	movf	(sprintf@integ+2)^(0+128),w
  4555  07D9  00F2               	movwf	?___ftge+2
  4556  07DA  0008               	return
  4557  07DB                     PL28:	
  4558  07DB  1283               	bcf	3,5	;RP0=0, select bank0
  4559  07DC  0857               	movf	??_sprintf+1,w
  4560  07DD  1803               	skipnc
  4561  07DE  3E01               	addlw	1
  4562  07DF  3EFF               	addlw	255
  4563  07E0  1683               	bsf	3,5	;RP0=1, select bank1
  4564  07E1  0008               	return
  4565  07E2                     PL29:	
  4566  07E2  0820               	movf	___fttol@f1,w
  4567  07E3  00A4               	movwf	??___fttol
  4568  07E4  0821               	movf	___fttol@f1+1,w
  4569  07E5  00A5               	movwf	??___fttol+1
  4570  07E6  0822               	movf	___fttol@f1+2,w
  4571  07E7  00A6               	movwf	??___fttol+2
  4572  07E8  0008               	return
  4573  07E9                     PL31:	
  4574  07E9  0084               	movwf	4
  4575  07EA  3030               	movlw	48
  4576  07EB  1383               	bcf	3,7	;select IRP bank0
  4577  07EC  0080               	movwf	0
  4578  07ED  30FF               	movlw	-1
  4579  07EE  0AB1               	incf	sprintf@sp^(0+128),f
  4580  07EF  0008               	return
  4581  07F0                     PL32:	
  4582  07F0  0800               	movf	0,w
  4583  07F1  1283               	bcf	3,5	;RP0=0, select bank0
  4584  07F2  00D6               	movwf	??_sprintf
  4585  07F3  0A84               	incf	4,f
  4586  07F4  0800               	movf	0,w
  4587  07F5  00D7               	movwf	??_sprintf+1
  4588  07F6  0008               	return
  4589  07F7                     PL33:	
  4590  07F7  0084               	movwf	4
  4591  07F8  3020               	movlw	32
  4592  07F9  1383               	bcf	3,7	;select IRP bank0
  4593  07FA  0080               	movwf	0
  4594  07FB  0AB1               	incf	sprintf@sp^(0+128),f
  4595  07FC  0008               	return
  4596  07FD                     PL34:	
  4597  07FD  1683               	bsf	3,5	;RP0=1, select bank1
  4598  07FE  1303               	bcf	3,6	;RP1=0, select bank1
  4599  07FF  0008               	return
  4600                           
  4601                           	psect	text719
  4602  15BE                     __ptext719:	
  4603 ;; =============== function _sprintf ends ============
  4604                           
  4605                           
  4606 ;; *************** function _lcd_goto *****************
  4607 ;; Defined at:
  4608 ;;		line 228 in file "C:\Users\petir\Documents\PIC_PROG\C_EEPROM-I2C\eeprom_i2c.c"
  4609 ;; Parameters:    Size  Location     Type
  4610 ;;  pos             1    wreg     unsigned char 
  4611 ;; Auto vars:     Size  Location     Type
  4612 ;;  pos             1    5[COMMON] unsigned char 
  4613 ;; Return value:  Size  Location     Type
  4614 ;;		None               void
  4615 ;; Registers used:
  4616 ;;		wreg, status,2, status,0, pclath, cstack
  4617 ;; Tracked objects:
  4618 ;;		On entry : 0/0
  4619 ;;		On exit  : 60/0
  4620 ;;		Unchanged: FFF9F/0
  4621 ;; Data sizes:     COMMON   BANK0   BANK1   BANK3   BANK2
  4622 ;;      Params:         0       0       0       0       0
  4623 ;;      Locals:         1       0       0       0       0
  4624 ;;      Temps:          0       0       0       0       0
  4625 ;;      Totals:         1       0       0       0       0
  4626 ;;Total ram usage:        1 bytes
  4627 ;; Hardware stack levels used:    1
  4628 ;; Hardware stack levels required when called:    3
  4629 ;; This function calls:
  4630 ;;		_lcd_write
  4631 ;; This function is called by:
  4632 ;;		_main
  4633 ;; This function uses a non-reentrant model
  4634 ;;
  4635  15BE                     _lcd_goto:	
  4636                           
  4637                           ; Regs used in _lcd_goto: [wreg+status,2+status,0+pclath+cstack]
  4638                           ;lcd_goto@pos stored from wreg
  4639  15BE  00F5               	movwf	lcd_goto@pos
  4640                           
  4641                           ;eeprom_i2c.c: 229: RA7=0;
  4642  15BF  1283               	bcf	3,5	;RP0=0, select bank0
  4643  15C0  1303               	bcf	3,6	;RP1=0, select bank0
  4644  15C1  1385               	bcf	5,7
  4645                           
  4646                           ;eeprom_i2c.c: 230: lcd_write(0x80+pos);
  4647  15C2  0875               	movf	lcd_goto@pos,w
  4648  15C3  3E80               	addlw	128
  4649  15C4  2E4E               	ljmp	_lcd_write
  4650  15C5                     __end_of_lcd_goto:	
  4651  15C5                     __ptext726:	
  4652 ;; =============== function _lcd_write ends ============
  4653                           
  4654                           
  4655 ;; *************** function _I2C_EEOUT *****************
  4656 ;; Defined at:
  4657 ;;		line 168 in file "C:\Users\petir\Documents\PIC_PROG\C_EEPROM-I2C\eeprom_i2c.c"
  4658 ;; Parameters:    Size  Location     Type
  4659 ;;  address1        1    wreg     unsigned char 
  4660 ;;  address2        1    4[COMMON] unsigned char 
  4661 ;;  data            1    5[COMMON] unsigned char 
  4662 ;; Auto vars:     Size  Location     Type
  4663 ;;  address1        1    6[COMMON] unsigned char 
  4664 ;; Return value:  Size  Location     Type
  4665 ;;		None               void
  4666 ;; Registers used:
  4667 ;;		wreg, status,2, status,0, pclath, cstack
  4668 ;; Tracked objects:
  4669 ;;		On entry : 160/20
  4670 ;;		On exit  : 100/0
  4671 ;;		Unchanged: FFE9F/0
  4672 ;; Data sizes:     COMMON   BANK0   BANK1   BANK3   BANK2
  4673 ;;      Params:         2       0       0       0       0
  4674 ;;      Locals:         1       0       0       0       0
  4675 ;;      Temps:          0       0       0       0       0
  4676 ;;      Totals:         3       0       0       0       0
  4677 ;;Total ram usage:        3 bytes
  4678 ;; Hardware stack levels used:    1
  4679 ;; Hardware stack levels required when called:    2
  4680 ;; This function calls:
  4681 ;;		_i2c_start
  4682 ;;		_i2c_write
  4683 ;;		_i2c_stop
  4684 ;;		_pause
  4685 ;; This function is called by:
  4686 ;;		_main
  4687 ;; This function uses a non-reentrant model
  4688 ;;
  4689  15C5                     _I2C_EEOUT:	
  4690                           
  4691                           ; Regs used in _I2C_EEOUT: [wreg+status,2+status,0+pclath+cstack]
  4692                           ;I2C_EEOUT@address1 stored from wreg
  4693  15C5  00F6               	movwf	I2C_EEOUT@address1
  4694                           
  4695                           ;eeprom_i2c.c: 169: i2c_start();
  4696  15C6  2609  160A  118A   	fcall	_i2c_start
  4697                           
  4698                           ;eeprom_i2c.c: 170: i2c_write(0xa0);
  4699  15C9  30A0               	movlw	160
  4700  15CA  2601  160A  118A   	fcall	_i2c_write
  4701                           
  4702                           ;eeprom_i2c.c: 171: i2c_write(address1);
  4703  15CD  0876               	movf	I2C_EEOUT@address1,w
  4704  15CE  2601  160A  118A   	fcall	_i2c_write
  4705                           
  4706                           ;eeprom_i2c.c: 172: i2c_write(address2);
  4707  15D1  0874               	movf	I2C_EEOUT@address2,w
  4708  15D2  2601  160A  118A   	fcall	_i2c_write
  4709                           
  4710                           ;eeprom_i2c.c: 173: i2c_write(data);
  4711  15D5  0875               	movf	I2C_EEOUT@data,w
  4712  15D6  2601  160A  118A   	fcall	_i2c_write
  4713                           
  4714                           ;eeprom_i2c.c: 174: i2c_stop();
  4715  15D9  260D  160A  118A   	fcall	_i2c_stop
  4716                           
  4717                           ;eeprom_i2c.c: 175: pause(11);
  4718  15DC  300B               	movlw	11
  4719  15DD  00F0               	movwf	?_pause
  4720  15DE  01F1               	clrf	?_pause+1
  4721  15DF  2E60               	ljmp	l5542
  4722  15E0                     __end_of_I2C_EEOUT:	
  4723  15E0                     __ptext731:	
  4724 ;; =============== function ___ftadd ends ============
  4725                           
  4726                           
  4727 ;; *************** function _I2C_EEIN *****************
  4728 ;; Defined at:
  4729 ;;		line 184 in file "C:\Users\petir\Documents\PIC_PROG\C_EEPROM-I2C\eeprom_i2c.c"
  4730 ;; Parameters:    Size  Location     Type
  4731 ;;  address1        1    wreg     unsigned char 
  4732 ;;  address2        1    1[COMMON] unsigned char 
  4733 ;; Auto vars:     Size  Location     Type
  4734 ;;  address1        1    2[COMMON] unsigned char 
  4735 ;;  data            1    3[COMMON] unsigned char 
  4736 ;; Return value:  Size  Location     Type
  4737 ;;                  1    wreg      unsigned char 
  4738 ;; Registers used:
  4739 ;;		wreg, status,2, status,0, pclath, cstack
  4740 ;; Tracked objects:
  4741 ;;		On entry : 160/20
  4742 ;;		On exit  : 160/20
  4743 ;;		Unchanged: FFE9F/0
  4744 ;; Data sizes:     COMMON   BANK0   BANK1   BANK3   BANK2
  4745 ;;      Params:         1       0       0       0       0
  4746 ;;      Locals:         2       0       0       0       0
  4747 ;;      Temps:          0       0       0       0       0
  4748 ;;      Totals:         3       0       0       0       0
  4749 ;;Total ram usage:        3 bytes
  4750 ;; Hardware stack levels used:    1
  4751 ;; Hardware stack levels required when called:    1
  4752 ;; This function calls:
  4753 ;;		_i2c_start
  4754 ;;		_i2c_write
  4755 ;;		_i2c_restart
  4756 ;;		_i2c_read
  4757 ;;		_I2C_nack
  4758 ;;		_i2c_stop
  4759 ;; This function is called by:
  4760 ;;		_main
  4761 ;; This function uses a non-reentrant model
  4762 ;;
  4763  15E0                     _I2C_EEIN:	
  4764                           
  4765                           ; Regs used in _I2C_EEIN: [wreg+status,2+status,0+pclath+cstack]
  4766                           ;I2C_EEIN@address1 stored from wreg
  4767  15E0  00F2               	movwf	I2C_EEIN@address1
  4768                           
  4769                           ;eeprom_i2c.c: 185: unsigned char data;
  4770                           ;eeprom_i2c.c: 186: i2c_start();
  4771  15E1  2609  160A  118A   	fcall	_i2c_start
  4772                           
  4773                           ;eeprom_i2c.c: 187: i2c_write(0xa0);
  4774  15E4  30A0               	movlw	160
  4775  15E5  2601  160A  118A   	fcall	_i2c_write
  4776                           
  4777                           ;eeprom_i2c.c: 188: i2c_write(address1);
  4778  15E8  0872               	movf	I2C_EEIN@address1,w
  4779  15E9  2601  160A  118A   	fcall	_i2c_write
  4780                           
  4781                           ;eeprom_i2c.c: 189: i2c_write(address2);
  4782  15EC  0871               	movf	I2C_EEIN@address2,w
  4783  15ED  2601  160A  118A   	fcall	_i2c_write
  4784                           
  4785                           ;eeprom_i2c.c: 190: i2c_restart();
  4786  15F0  2612  160A  118A   	fcall	_i2c_restart
  4787                           
  4788                           ;eeprom_i2c.c: 191: i2c_write(0xa1);
  4789  15F3  30A1               	movlw	161
  4790  15F4  2601  160A  118A   	fcall	_i2c_write
  4791                           
  4792                           ;eeprom_i2c.c: 192: data=i2c_read();
  4793  15F7  2617  160A  118A   	fcall	_i2c_read
  4794  15FA  00F3               	movwf	I2C_EEIN@data
  4795                           
  4796                           ;eeprom_i2c.c: 193: I2C_nack();
  4797  15FB  261F  160A  118A   	fcall	_I2C_nack
  4798                           
  4799                           ;eeprom_i2c.c: 194: i2c_stop();
  4800  15FE  260D               	fcall	_i2c_stop
  4801                           
  4802                           ;eeprom_i2c.c: 195: return(data);
  4803  15FF  0873               	movf	I2C_EEIN@data,w
  4804  1600  0008               	return
  4805  1601                     __end_of_I2C_EEIN:	
  4806  1601                     __ptext749:	
  4807 ;; =============== function _putch ends ============
  4808                           
  4809                           
  4810 ;; *************** function _i2c_write *****************
  4811 ;; Defined at:
  4812 ;;		line 156 in file "C:\Users\petir\Documents\PIC_PROG\C_EEPROM-I2C\eeprom_i2c.c"
  4813 ;; Parameters:    Size  Location     Type
  4814 ;;  I2C_data        1    wreg     unsigned char 
  4815 ;; Auto vars:     Size  Location     Type
  4816 ;;  I2C_data        1    0[COMMON] unsigned char 
  4817 ;; Return value:  Size  Location     Type
  4818 ;;		None               void
  4819 ;; Registers used:
  4820 ;;		wreg
  4821 ;; Tracked objects:
  4822 ;;		On entry : 140/20
  4823 ;;		On exit  : 160/0
  4824 ;;		Unchanged: FFE9F/0
  4825 ;; Data sizes:     COMMON   BANK0   BANK1   BANK3   BANK2
  4826 ;;      Params:         0       0       0       0       0
  4827 ;;      Locals:         1       0       0       0       0
  4828 ;;      Temps:          0       0       0       0       0
  4829 ;;      Totals:         1       0       0       0       0
  4830 ;;Total ram usage:        1 bytes
  4831 ;; Hardware stack levels used:    1
  4832 ;; This function calls:
  4833 ;;		Nothing
  4834 ;; This function is called by:
  4835 ;;		_I2C_EEOUT
  4836 ;;		_I2C_EEIN
  4837 ;; This function uses a non-reentrant model
  4838 ;;
  4839  1601                     _i2c_write:	
  4840                           
  4841                           ; Regs used in _i2c_write: [wreg]
  4842                           ;i2c_write@I2C_data stored from wreg
  4843  1601  00F0               	movwf	i2c_write@I2C_data
  4844                           
  4845                           ;eeprom_i2c.c: 157: PIR1bits.SSPIF=0;
  4846  1602  1283               	bcf	3,5	;RP0=0, select bank0
  4847  1603  118C               	bcf	12,3	;volatile
  4848                           
  4849                           ;eeprom_i2c.c: 158: SSPBUF=I2C_data;
  4850  1604  0870               	movf	i2c_write@I2C_data,w
  4851  1605  0093               	movwf	19	;volatile
  4852  1606                     l1107:	
  4853                           ;eeprom_i2c.c: 159: while(PIR1bits.SSPIF==0);
  4854                           
  4855  1606  198C               	btfsc	12,3	;volatile
  4856  1607  0008               	return
  4857  1608  2E06               	goto	l1107
  4858  1609                     __end_of_i2c_write:	
  4859  1609                     __ptext754:	
  4860 ;; =============== function _i2c_restart ends ============
  4861                           
  4862                           
  4863 ;; *************** function _i2c_start *****************
  4864 ;; Defined at:
  4865 ;;		line 102 in file "C:\Users\petir\Documents\PIC_PROG\C_EEPROM-I2C\eeprom_i2c.c"
  4866 ;; Parameters:    Size  Location     Type
  4867 ;;		None
  4868 ;; Auto vars:     Size  Location     Type
  4869 ;;		None
  4870 ;; Return value:  Size  Location     Type
  4871 ;;		None               void
  4872 ;; Registers used:
  4873 ;;		None
  4874 ;; Tracked objects:
  4875 ;;		On entry : 160/20
  4876 ;;		On exit  : 160/20
  4877 ;;		Unchanged: FFE9F/0
  4878 ;; Data sizes:     COMMON   BANK0   BANK1   BANK3   BANK2
  4879 ;;      Params:         0       0       0       0       0
  4880 ;;      Locals:         0       0       0       0       0
  4881 ;;      Temps:          0       0       0       0       0
  4882 ;;      Totals:         0       0       0       0       0
  4883 ;;Total ram usage:        0 bytes
  4884 ;; Hardware stack levels used:    1
  4885 ;; This function calls:
  4886 ;;		Nothing
  4887 ;; This function is called by:
  4888 ;;		_I2C_EEOUT
  4889 ;;		_I2C_EEIN
  4890 ;; This function uses a non-reentrant model
  4891 ;;
  4892  1609                     _i2c_start:	
  4893                           
  4894                           ;eeprom_i2c.c: 103: SSPCON2bits.SEN=1;
  4895                           
  4896                           ; Regs used in _i2c_start: []
  4897  1609  1411               	bsf	17,0	;volatile
  4898  160A                     l1071:	
  4899                           ;eeprom_i2c.c: 104: while(SSPCON2bits.SEN==1);
  4900                           
  4901  160A  1C11               	btfss	17,0	;volatile
  4902  160B  0008               	return
  4903  160C  2E0A               	goto	l1071
  4904  160D                     __end_of_i2c_start:	
  4905  160D                     __ptext752:	
  4906 ;; =============== function _i2c_read ends ============
  4907                           
  4908                           
  4909 ;; *************** function _i2c_stop *****************
  4910 ;; Defined at:
  4911 ;;		line 118 in file "C:\Users\petir\Documents\PIC_PROG\C_EEPROM-I2C\eeprom_i2c.c"
  4912 ;; Parameters:    Size  Location     Type
  4913 ;;		None
  4914 ;; Auto vars:     Size  Location     Type
  4915 ;;		None
  4916 ;; Return value:  Size  Location     Type
  4917 ;;		None               void
  4918 ;; Registers used:
  4919 ;;		None
  4920 ;; Tracked objects:
  4921 ;;		On entry : 160/0
  4922 ;;		On exit  : 160/20
  4923 ;;		Unchanged: FFE9F/0
  4924 ;; Data sizes:     COMMON   BANK0   BANK1   BANK3   BANK2
  4925 ;;      Params:         0       0       0       0       0
  4926 ;;      Locals:         0       0       0       0       0
  4927 ;;      Temps:          0       0       0       0       0
  4928 ;;      Totals:         0       0       0       0       0
  4929 ;;Total ram usage:        0 bytes
  4930 ;; Hardware stack levels used:    1
  4931 ;; This function calls:
  4932 ;;		Nothing
  4933 ;; This function is called by:
  4934 ;;		_I2C_EEOUT
  4935 ;;		_I2C_EEIN
  4936 ;; This function uses a non-reentrant model
  4937 ;;
  4938  160D                     _i2c_stop:	
  4939                           
  4940                           ;eeprom_i2c.c: 119: SSPCON2bits.PEN=1;
  4941                           
  4942                           ; Regs used in _i2c_stop: []
  4943  160D  1683               	bsf	3,5	;RP0=1, select bank1
  4944  160E  1511               	bsf	17,2	;volatile
  4945  160F                     l1083:	
  4946                           ;eeprom_i2c.c: 120: while(SSPCON2bits.PEN==1);
  4947                           
  4948  160F  1D11               	btfss	17,2	;volatile
  4949  1610  0008               	return
  4950  1611  2E0F               	goto	l1083
  4951  1612                     __end_of_i2c_stop:	
  4952  1612                     __ptext753:	
  4953 ;; =============== function _i2c_stop ends ============
  4954                           
  4955                           
  4956 ;; *************** function _i2c_restart *****************
  4957 ;; Defined at:
  4958 ;;		line 110 in file "C:\Users\petir\Documents\PIC_PROG\C_EEPROM-I2C\eeprom_i2c.c"
  4959 ;; Parameters:    Size  Location     Type
  4960 ;;		None
  4961 ;; Auto vars:     Size  Location     Type
  4962 ;;		None
  4963 ;; Return value:  Size  Location     Type
  4964 ;;		None               void
  4965 ;; Registers used:
  4966 ;;		None
  4967 ;; Tracked objects:
  4968 ;;		On entry : 160/0
  4969 ;;		On exit  : 160/20
  4970 ;;		Unchanged: FFE9F/0
  4971 ;; Data sizes:     COMMON   BANK0   BANK1   BANK3   BANK2
  4972 ;;      Params:         0       0       0       0       0
  4973 ;;      Locals:         0       0       0       0       0
  4974 ;;      Temps:          0       0       0       0       0
  4975 ;;      Totals:         0       0       0       0       0
  4976 ;;Total ram usage:        0 bytes
  4977 ;; Hardware stack levels used:    1
  4978 ;; This function calls:
  4979 ;;		Nothing
  4980 ;; This function is called by:
  4981 ;;		_I2C_EEIN
  4982 ;; This function uses a non-reentrant model
  4983 ;;
  4984  1612                     _i2c_restart:	
  4985                           
  4986                           ;eeprom_i2c.c: 111: SSPCON2bits.RSEN=1;
  4987                           
  4988                           ; Regs used in _i2c_restart: []
  4989  1612  1683               	bsf	3,5	;RP0=1, select bank1
  4990  1613  1491               	bsf	17,1	;volatile
  4991  1614                     l1077:	
  4992                           ;eeprom_i2c.c: 112: while(SSPCON2bits.RSEN==1);
  4993                           
  4994  1614  1C91               	btfss	17,1	;volatile
  4995  1615  0008               	return
  4996  1616  2E14               	goto	l1077
  4997  1617                     __end_of_i2c_restart:	
  4998  1617                     __ptext751:	
  4999 ;; =============== function _I2C_nack ends ============
  5000                           
  5001                           
  5002 ;; *************** function _i2c_read *****************
  5003 ;; Defined at:
  5004 ;;		line 126 in file "C:\Users\petir\Documents\PIC_PROG\C_EEPROM-I2C\eeprom_i2c.c"
  5005 ;; Parameters:    Size  Location     Type
  5006 ;;		None
  5007 ;; Auto vars:     Size  Location     Type
  5008 ;;		None
  5009 ;; Return value:  Size  Location     Type
  5010 ;;                  1    wreg      unsigned char 
  5011 ;; Registers used:
  5012 ;;		wreg
  5013 ;; Tracked objects:
  5014 ;;		On entry : 160/0
  5015 ;;		On exit  : 160/0
  5016 ;;		Unchanged: FFE9F/0
  5017 ;; Data sizes:     COMMON   BANK0   BANK1   BANK3   BANK2
  5018 ;;      Params:         0       0       0       0       0
  5019 ;;      Locals:         0       0       0       0       0
  5020 ;;      Temps:          0       0       0       0       0
  5021 ;;      Totals:         0       0       0       0       0
  5022 ;;Total ram usage:        0 bytes
  5023 ;; Hardware stack levels used:    1
  5024 ;; This function calls:
  5025 ;;		Nothing
  5026 ;; This function is called by:
  5027 ;;		_I2C_EEIN
  5028 ;; This function uses a non-reentrant model
  5029 ;;
  5030  1617                     _i2c_read:	
  5031                           
  5032                           ;eeprom_i2c.c: 127: PIR1bits.SSPIF=0;
  5033                           
  5034                           ; Regs used in _i2c_read: [wreg]
  5035  1617  118C               	bcf	12,3	;volatile
  5036                           
  5037                           ;eeprom_i2c.c: 128: SSPCON2bits.RCEN=1;
  5038  1618  1683               	bsf	3,5	;RP0=1, select bank1
  5039  1619  1591               	bsf	17,3	;volatile
  5040  161A                     l1089:	
  5041                           ;eeprom_i2c.c: 129: while(PIR1bits.SSPIF==0);
  5042                           
  5043  161A  1283               	bcf	3,5	;RP0=0, select bank0
  5044  161B  1D8C               	btfss	12,3	;volatile
  5045  161C  2E1A               	goto	l1089
  5046                           
  5047                           ;eeprom_i2c.c: 130: return SSPBUF;
  5048  161D  0813               	movf	19,w	;volatile
  5049  161E  0008               	return
  5050  161F                     __end_of_i2c_read:	
  5051  161F                     __ptext750:	
  5052 ;; =============== function _i2c_write ends ============
  5053                           
  5054                           
  5055 ;; *************** function _I2C_nack *****************
  5056 ;; Defined at:
  5057 ;;		line 146 in file "C:\Users\petir\Documents\PIC_PROG\C_EEPROM-I2C\eeprom_i2c.c"
  5058 ;; Parameters:    Size  Location     Type
  5059 ;;		None
  5060 ;; Auto vars:     Size  Location     Type
  5061 ;;		None
  5062 ;; Return value:  Size  Location     Type
  5063 ;;		None               void
  5064 ;; Registers used:
  5065 ;;		None
  5066 ;; Tracked objects:
  5067 ;;		On entry : 160/0
  5068 ;;		On exit  : 160/0
  5069 ;;		Unchanged: FFE9F/0
  5070 ;; Data sizes:     COMMON   BANK0   BANK1   BANK3   BANK2
  5071 ;;      Params:         0       0       0       0       0
  5072 ;;      Locals:         0       0       0       0       0
  5073 ;;      Temps:          0       0       0       0       0
  5074 ;;      Totals:         0       0       0       0       0
  5075 ;;Total ram usage:        0 bytes
  5076 ;; Hardware stack levels used:    1
  5077 ;; This function calls:
  5078 ;;		Nothing
  5079 ;; This function is called by:
  5080 ;;		_I2C_EEIN
  5081 ;; This function uses a non-reentrant model
  5082 ;;
  5083  161F                     _I2C_nack:	
  5084                           
  5085                           ;eeprom_i2c.c: 147: PIR1bits.SSPIF=0;
  5086                           
  5087                           ; Regs used in _I2C_nack: []
  5088  161F  118C               	bcf	12,3	;volatile
  5089                           
  5090                           ;eeprom_i2c.c: 148: SSPCON2bits.ACKDT=1;
  5091  1620  1683               	bsf	3,5	;RP0=1, select bank1
  5092  1621  1691               	bsf	17,5	;volatile
  5093                           
  5094                           ;eeprom_i2c.c: 149: SSPCON2bits.ACKEN=1;
  5095  1622  1611               	bsf	17,4	;volatile
  5096  1623                     l1101:	
  5097                           ;eeprom_i2c.c: 150: while(PIR1bits.SSPIF==0);
  5098                           
  5099  1623  1283               	bcf	3,5	;RP0=0, select bank0
  5100  1624  198C               	btfsc	12,3	;volatile
  5101  1625  0008               	return
  5102  1626  2E23               	goto	l1101
  5103  1627                     __end_of_I2C_nack:	
  5104  1627                     __ptext721:	
  5105 ;; =============== function _lcd_puts ends ============
  5106                           
  5107                           
  5108 ;; *************** function _lcd_clear *****************
  5109 ;; Defined at:
  5110 ;;		line 208 in file "C:\Users\petir\Documents\PIC_PROG\C_EEPROM-I2C\eeprom_i2c.c"
  5111 ;; Parameters:    Size  Location     Type
  5112 ;;		None
  5113 ;; Auto vars:     Size  Location     Type
  5114 ;;		None
  5115 ;; Return value:  Size  Location     Type
  5116 ;;		None               void
  5117 ;; Registers used:
  5118 ;;		wreg, status,2, status,0, pclath, cstack
  5119 ;; Tracked objects:
  5120 ;;		On entry : 40/0
  5121 ;;		On exit  : 0/0
  5122 ;;		Unchanged: FFF9F/0
  5123 ;; Data sizes:     COMMON   BANK0   BANK1   BANK3   BANK2
  5124 ;;      Params:         0       0       0       0       0
  5125 ;;      Locals:         0       0       0       0       0
  5126 ;;      Temps:          0       0       0       0       0
  5127 ;;      Totals:         0       0       0       0       0
  5128 ;;Total ram usage:        0 bytes
  5129 ;; Hardware stack levels used:    1
  5130 ;; Hardware stack levels required when called:    3
  5131 ;; This function calls:
  5132 ;;		_lcd_write
  5133 ;;		_pause
  5134 ;; This function is called by:
  5135 ;;		_main
  5136 ;; This function uses a non-reentrant model
  5137 ;;
  5138  1627                     _lcd_clear:	
  5139                           
  5140                           ;eeprom_i2c.c: 209: RA7=0;
  5141                           
  5142                           ; Regs used in _lcd_clear: [wreg+status,2+status,0+pclath+cstack]
  5143  1627  1283               	bcf	3,5	;RP0=0, select bank0
  5144  1628  3001               	movlw	1
  5145  1629  1385               	bcf	5,7
  5146                           
  5147                           ;eeprom_i2c.c: 210: lcd_write(0x1);
  5148  162A  264E  160A  118A   	fcall	_lcd_write
  5149                           
  5150                           ;eeprom_i2c.c: 211: pause(2);
  5151  162D  3002               	movlw	2
  5152  162E  00F0               	movwf	?_pause
  5153  162F  01F1               	clrf	?_pause+1
  5154  1630  2E60               	ljmp	l5542
  5155  1631                     __end_of_lcd_clear:	
  5156  1631                     __ptext720:	
  5157 ;; =============== function _lcd_goto ends ============
  5158                           
  5159                           
  5160 ;; *************** function _lcd_puts *****************
  5161 ;; Defined at:
  5162 ;;		line 215 in file "C:\Users\petir\Documents\PIC_PROG\C_EEPROM-I2C\eeprom_i2c.c"
  5163 ;; Parameters:    Size  Location     Type
  5164 ;;  s               2    5[COMMON] PTR const unsigned char 
  5165 ;;		 -> STR_9(4), STR_6(11), STR_4(4), carac(5), 
  5166 ;;		 -> STR_2(15), 
  5167 ;; Auto vars:     Size  Location     Type
  5168 ;;		None
  5169 ;; Return value:  Size  Location     Type
  5170 ;;		None               void
  5171 ;; Registers used:
  5172 ;;		wreg, fsr0l, fsr0h, status,2, status,0, btemp+1, pclath, cstack
  5173 ;; Tracked objects:
  5174 ;;		On entry : 60/0
  5175 ;;		On exit  : 60/0
  5176 ;;		Unchanged: FFE9F/0
  5177 ;; Data sizes:     COMMON   BANK0   BANK1   BANK3   BANK2
  5178 ;;      Params:         2       0       0       0       0
  5179 ;;      Locals:         0       0       0       0       0
  5180 ;;      Temps:          0       0       0       0       0
  5181 ;;      Totals:         2       0       0       0       0
  5182 ;;Total ram usage:        2 bytes
  5183 ;; Hardware stack levels used:    1
  5184 ;; Hardware stack levels required when called:    3
  5185 ;; This function calls:
  5186 ;;		_lcd_write
  5187 ;; This function is called by:
  5188 ;;		_main
  5189 ;; This function uses a non-reentrant model
  5190 ;;
  5191  1631                     _lcd_puts:	
  5192                           
  5193                           ;eeprom_i2c.c: 216: RA7=1;
  5194                           
  5195                           ; Regs used in _lcd_puts: [wreg-fsr0h+status,2+status,0+btemp+1+pclath+cstack]
  5196  1631  1785               	bsf	5,7
  5197  1632                     l5830:	
  5198                           ;eeprom_i2c.c: 217: while(*s)
  5199                           
  5200  1632  0876               	movf	lcd_puts@s+1,w
  5201  1633  00FF               	movwf	127
  5202  1634  0875               	movf	lcd_puts@s,w
  5203  1635  0084               	movwf	4
  5204  1636  160A  118A  2000   	fcall	stringtab
      +       160A  118A         
  5205  163B  3800               	iorlw	0
  5206  163C  1903               	btfsc	3,2
  5207  163D  0008               	return
  5208                           
  5209                           ;eeprom_i2c.c: 218: lcd_write(*s++);
  5210  163E  0876               	movf	lcd_puts@s+1,w
  5211  163F  00FF               	movwf	127
  5212  1640  0875               	movf	lcd_puts@s,w
  5213  1641  0084               	movwf	4
  5214  1642  160A  118A  2000   	fcall	stringtab
      +       160A  118A         
  5215  1647  264E  160A  118A   	fcall	_lcd_write
  5216  164A  0AF5               	incf	lcd_puts@s,f
  5217  164B  1903               	skipnz
  5218  164C  0AF6               	incf	lcd_puts@s+1,f
  5219  164D  2E32               	goto	l5830
  5220  164E                     __end_of_lcd_puts:	
  5221  164E                     __ptext725:	
  5222 ;; =============== function _fround ends ============
  5223                           
  5224                           
  5225 ;; *************** function _lcd_write *****************
  5226 ;; Defined at:
  5227 ;;		line 199 in file "C:\Users\petir\Documents\PIC_PROG\C_EEPROM-I2C\eeprom_i2c.c"
  5228 ;; Parameters:    Size  Location     Type
  5229 ;;  c               1    wreg     unsigned char 
  5230 ;; Auto vars:     Size  Location     Type
  5231 ;;  c               1    4[COMMON] unsigned char 
  5232 ;; Return value:  Size  Location     Type
  5233 ;;		None               void
  5234 ;; Registers used:
  5235 ;;		wreg, status,2, status,0, pclath, cstack
  5236 ;; Tracked objects:
  5237 ;;		On entry : 0/0
  5238 ;;		On exit  : 60/0
  5239 ;;		Unchanged: FFF9F/0
  5240 ;; Data sizes:     COMMON   BANK0   BANK1   BANK3   BANK2
  5241 ;;      Params:         0       0       0       0       0
  5242 ;;      Locals:         1       0       0       0       0
  5243 ;;      Temps:          0       0       0       0       0
  5244 ;;      Totals:         1       0       0       0       0
  5245 ;;Total ram usage:        1 bytes
  5246 ;; Hardware stack levels used:    1
  5247 ;; Hardware stack levels required when called:    2
  5248 ;; This function calls:
  5249 ;;		_pause
  5250 ;; This function is called by:
  5251 ;;		_lcd_clear
  5252 ;;		_lcd_puts
  5253 ;;		_lcd_goto
  5254 ;;		_main
  5255 ;; This function uses a non-reentrant model
  5256 ;;
  5257  164E                     _lcd_write:	
  5258                           
  5259                           ; Regs used in _lcd_write: [wreg+status,2+status,0+pclath+cstack]
  5260                           ;lcd_write@c stored from wreg
  5261  164E  00F4               	movwf	lcd_write@c
  5262                           
  5263                           ;eeprom_i2c.c: 200: pause(1);
  5264  164F  01F0               	clrf	?_pause
  5265  1650  0AF0               	incf	?_pause,f
  5266  1651  01F1               	clrf	?_pause+1
  5267  1652  2660               	fcall	_pause
  5268                           
  5269                           ;eeprom_i2c.c: 201: PORTD=((c >> 4) & 0x0F);
  5270  1653  0E74               	swapf	lcd_write@c,w
  5271  1654  390F               	andlw	15
  5272  1655  1283               	bcf	3,5	;RP0=0, select bank0
  5273  1656  1303               	bcf	3,6	;RP1=0, select bank0
  5274  1657  0088               	movwf	8	;volatile
  5275                           
  5276                           ;eeprom_i2c.c: 202: ((RA6=1),(RA6=0));
  5277  1658  1705               	bsf	5,6
  5278  1659  1305               	bcf	5,6
  5279                           
  5280                           ;eeprom_i2c.c: 203: PORTD=(c & 0x0F);
  5281  165A  0874               	movf	lcd_write@c,w
  5282  165B  390F               	andlw	15
  5283  165C  0088               	movwf	8	;volatile
  5284                           
  5285                           ;eeprom_i2c.c: 204: ((RA6=1),(RA6=0));
  5286  165D  1705               	bsf	5,6
  5287  165E  1305               	bcf	5,6
  5288  165F  0008               	return
  5289  1660                     __end_of_lcd_write:	
  5290  1660                     __ptext732:	
  5291 ;; =============== function _I2C_EEIN ends ============
  5292                           
  5293                           
  5294 ;; *************** function _pause *****************
  5295 ;; Defined at:
  5296 ;;		line 71 in file "C:\Users\petir\Documents\PIC_PROG\C_EEPROM-I2C\eeprom_i2c.c"
  5297 ;; Parameters:    Size  Location     Type
  5298 ;;  usvalue         2    0[COMMON] unsigned short 
  5299 ;; Auto vars:     Size  Location     Type
  5300 ;;  x               2    2[COMMON] unsigned short 
  5301 ;; Return value:  Size  Location     Type
  5302 ;;		None               void
  5303 ;; Registers used:
  5304 ;;		wreg, status,2, status,0, pclath, cstack
  5305 ;; Tracked objects:
  5306 ;;		On entry : 0/0
  5307 ;;		On exit  : 0/0
  5308 ;;		Unchanged: FFF9F/0
  5309 ;; Data sizes:     COMMON   BANK0   BANK1   BANK3   BANK2
  5310 ;;      Params:         2       0       0       0       0
  5311 ;;      Locals:         2       0       0       0       0
  5312 ;;      Temps:          0       0       0       0       0
  5313 ;;      Totals:         4       0       0       0       0
  5314 ;;Total ram usage:        4 bytes
  5315 ;; Hardware stack levels used:    1
  5316 ;; Hardware stack levels required when called:    1
  5317 ;; This function calls:
  5318 ;;		_msecbase
  5319 ;; This function is called by:
  5320 ;;		_I2C_EEOUT
  5321 ;;		_lcd_write
  5322 ;;		_lcd_clear
  5323 ;;		_main
  5324 ;; This function uses a non-reentrant model
  5325 ;;
  5326  1660                     _pause:	
  5327  1660                     l5542:	
  5328                           ; Regs used in _pause: [wreg+status,2+status,0+pclath+cstack]
  5329                           
  5330                           
  5331                           ;eeprom_i2c.c: 72: unsigned short x;
  5332                           ;eeprom_i2c.c: 74: for (x=0; x<=usvalue; x++)
  5333  1660  01F2               	clrf	pause@x
  5334  1661  01F3               	clrf	pause@x+1
  5335  1662                     l5548:	
  5336  1662  0873               	movf	pause@x+1,w
  5337  1663  0271               	subwf	pause@usvalue+1,w
  5338  1664  1D03               	skipz
  5339  1665  2E68               	goto	u2655
  5340  1666  0872               	movf	pause@x,w
  5341  1667  0270               	subwf	pause@usvalue,w
  5342  1668                     u2655:	
  5343  1668  1C03               	btfss	3,0
  5344  1669  0008               	return
  5345                           
  5346                           ;eeprom_i2c.c: 75: {
  5347                           ;eeprom_i2c.c: 76: msecbase();
  5348  166A  2671  160A  118A   	fcall	_msecbase
  5349  166D  0AF2               	incf	pause@x,f
  5350  166E  1903               	skipnz
  5351  166F  0AF3               	incf	pause@x+1,f
  5352  1670  2E62               	goto	l5548
  5353  1671                     __end_of_pause:	
  5354  1671                     __ptext756:	
  5355 ;; =============== function _i2c_init ends ============
  5356                           
  5357                           
  5358 ;; *************** function _msecbase *****************
  5359 ;; Defined at:
  5360 ;;		line 62 in file "C:\Users\petir\Documents\PIC_PROG\C_EEPROM-I2C\eeprom_i2c.c"
  5361 ;; Parameters:    Size  Location     Type
  5362 ;;		None
  5363 ;; Auto vars:     Size  Location     Type
  5364 ;;		None
  5365 ;; Return value:  Size  Location     Type
  5366 ;;		None               void
  5367 ;; Registers used:
  5368 ;;		wreg
  5369 ;; Tracked objects:
  5370 ;;		On entry : 0/0
  5371 ;;		On exit  : 0/0
  5372 ;;		Unchanged: FFF9F/0
  5373 ;; Data sizes:     COMMON   BANK0   BANK1   BANK3   BANK2
  5374 ;;      Params:         0       0       0       0       0
  5375 ;;      Locals:         0       0       0       0       0
  5376 ;;      Temps:          0       0       0       0       0
  5377 ;;      Totals:         0       0       0       0       0
  5378 ;;Total ram usage:        0 bytes
  5379 ;; Hardware stack levels used:    1
  5380 ;; This function calls:
  5381 ;;		Nothing
  5382 ;; This function is called by:
  5383 ;;		_pause
  5384 ;; This function uses a non-reentrant model
  5385 ;;
  5386  1671                     _msecbase:	
  5387                           
  5388                           ;eeprom_i2c.c: 63: OPTION_REG = 0b00000001;
  5389                           
  5390                           ; Regs used in _msecbase: [wreg]
  5391  1671  3001               	movlw	1
  5392  1672  1683               	bsf	3,5	;RP0=1, select bank1
  5393  1673  1303               	bcf	3,6	;RP1=0, select bank1
  5394  1674  0081               	movwf	1	;volatile
  5395                           
  5396                           ;eeprom_i2c.c: 64: TMR0 = 0xD;
  5397  1675  300D               	movlw	13
  5398  1676  1283               	bcf	3,5	;RP0=0, select bank0
  5399  1677  0081               	movwf	1	;volatile
  5400  1678                     l1056:	
  5401                           ;eeprom_i2c.c: 65: while(!T0IF);
  5402                           
  5403  1678  1D0B               	btfss	11,2
  5404  1679  2E78               	goto	l1056
  5405                           
  5406                           ;eeprom_i2c.c: 66: T0IF = 0;
  5407  167A  110B               	bcf	11,2
  5408  167B  0008               	return
  5409  167C                     __end_of_msecbase:	
  5410                           
  5411                           	psect	text724
  5412  084E                     __ptext724:	
  5413 ;; =============== function _scale ends ============
  5414                           
  5415                           
  5416 ;; *************** function _fround *****************
  5417 ;; Defined at:
  5418 ;;		line 406 in file "C:\Program Files (x86)\HI-TECH Software\PICC\9.82\lib\doprnt.c"
  5419 ;; Parameters:    Size  Location     Type
  5420 ;;  prec            1    wreg     unsigned char 
  5421 ;; Auto vars:     Size  Location     Type
  5422 ;;  prec            1   49[BANK0 ] unsigned char 
  5423 ;; Return value:  Size  Location     Type
  5424 ;;                  3   40[BANK0 ] unsigned char 
  5425 ;; Registers used:
  5426 ;;		wreg, fsr0l, fsr0h, status,2, status,0, pclath, cstack
  5427 ;; Tracked objects:
  5428 ;;		On entry : 60/20
  5429 ;;		On exit  : 60/0
  5430 ;;		Unchanged: FFF9F/0
  5431 ;; Data sizes:     COMMON   BANK0   BANK1   BANK3   BANK2
  5432 ;;      Params:         0       3       0       0       0
  5433 ;;      Locals:         0       7       0       0       0
  5434 ;;      Temps:          0       0       0       0       0
  5435 ;;      Totals:         0      10       0       0       0
  5436 ;;Total ram usage:       10 bytes
  5437 ;; Hardware stack levels used:    1
  5438 ;; Hardware stack levels required when called:    2
  5439 ;; This function calls:
  5440 ;;		___lbmod
  5441 ;;		___bmul
  5442 ;;		___lbdiv
  5443 ;;		___ftmul
  5444 ;; This function is called by:
  5445 ;;		_sprintf
  5446 ;; This function uses a non-reentrant model
  5447 ;;
  5448  084E                     _fround:	
  5449                           
  5450                           ; Regs used in _fround: [wreg-fsr0h+status,2+status,0+pclath+cstack]
  5451                           ;fround@prec stored from wreg
  5452  084E  1283               	bcf	3,5	;RP0=0, select bank0
  5453  084F  00D1               	movwf	fround@prec
  5454  0850  306E               	movlw	110
  5455  0851  0251               	subwf	fround@prec,w
  5456  0852  1C03               	skipc
  5457  0853  28D9               	goto	l5762
  5458  0854  3003               	movlw	3
  5459  0855  00F9               	movwf	?___bmul
  5460  0856  300A               	movlw	10
  5461  0857  00F5               	movwf	?___lbdiv
  5462  0858  3064               	movlw	100
  5463  0859  00F0               	movwf	?___lbmod
  5464  085A  0851               	movf	fround@prec,w
  5465  085B  216E  120A  158A   	fcall	___lbmod
  5466  085E  2153               	fcall	___lbdiv
  5467  085F  120A  158A  275B   	fcall	___bmul
      +       120A  158A         
  5468  0864  3E1C               	addlw	low ((__npowers_-__stringbase+27))
  5469  0865  0084               	movwf	4
  5470  0866  160A  118A  200A   	fcall	stringdir
      +       120A  158A         
  5471  086B  00AD               	movwf	?___ftmul
  5472  086C  160A  118A  200A   	fcall	stringdir
      +       120A  158A         
  5473  0871  00AE               	movwf	?___ftmul+1
  5474  0872  160A  118A  200A   	fcall	stringdir
      +       120A  158A         
  5475  0877  00AF               	movwf	?___ftmul+2
  5476  0878  3003               	movlw	3
  5477  0879  00F9               	movwf	?___bmul
  5478  087A  3064               	movlw	100
  5479  087B  00F5               	movwf	?___lbdiv
  5480  087C  0851               	movf	fround@prec,w
  5481  087D  2153               	fcall	___lbdiv
  5482  087E  120A  158A  275B   	fcall	___bmul
      +       120A  158A         
  5483  0883  3E37               	addlw	low ((__npowers_-__stringbase+54))
  5484  0884  0084               	movwf	4
  5485  0885  160A  118A  200A   	fcall	stringdir
      +       120A  158A         
  5486  088A  00B0               	movwf	?___ftmul+3
  5487  088B  160A  118A  200A   	fcall	stringdir
      +       120A  158A         
  5488  0890  00B1               	movwf	?___ftmul+4
  5489  0891  160A  118A  200A   	fcall	stringdir
      +       120A  158A         
  5490  0896  00B2               	movwf	?___ftmul+5
  5491  0897  120A  158A  26EC   	fcall	___ftmul
      +       120A  158A         
  5492  089C  2199  120A  158A   	fcall	PL30	;call to abstracted procedure
  5493  089F  3003               	movlw	3
  5494  08A0  00F9               	movwf	?___bmul
  5495  08A1  300A               	movlw	10
  5496  08A2  00F0               	movwf	?___lbmod
  5497  08A3  0851               	movf	fround@prec,w
  5498  08A4  216E               	fcall	___lbmod
  5499  08A5  120A  158A  275B   	fcall	___bmul
      +       120A  158A         
  5500  08AA  3E01               	addlw	low (__npowers_-__stringbase)
  5501  08AB  0084               	movwf	4
  5502  08AC  160A  118A  200A   	fcall	stringdir
      +       120A  158A         
  5503  08B1  00AD               	movwf	?___ftmul
  5504  08B2  160A  118A  200A   	fcall	stringdir
      +       120A  158A         
  5505  08B7  00AE               	movwf	?___ftmul+1
  5506  08B8  160A  118A  200A   	fcall	stringdir
      +       120A  158A         
  5507  08BD  2191               	fcall	PL26	;call to abstracted procedure
  5508  08BE  120A  158A  26EC   	fcall	___ftmul
      +       120A  158A         
  5509  08C3  082D               	movf	?___ftmul,w
  5510  08C4  00CB               	movwf	_fround$2942
  5511  08C5  082E               	movf	?___ftmul+1,w
  5512  08C6  00CC               	movwf	_fround$2942+1
  5513  08C7  082F               	movf	?___ftmul+2,w
  5514  08C8  00CD               	movwf	_fround$2942+2
  5515  08C9  303F               	movlw	63
  5516  08CA  01AD               	clrf	?___ftmul
  5517  08CB  01AE               	clrf	?___ftmul+1
  5518  08CC  00AF               	movwf	?___ftmul+2
  5519  08CD  084B               	movf	_fround$2942,w
  5520  08CE  00B0               	movwf	?___ftmul+3
  5521  08CF  084C               	movf	_fround$2942+1,w
  5522  08D0  00B1               	movwf	?___ftmul+4
  5523  08D1  084D               	movf	_fround$2942+2,w
  5524  08D2  00B2               	movwf	?___ftmul+5
  5525  08D3  120A  158A  26EC   	fcall	___ftmul
      +       120A  158A         
  5526  08D8  298A               	ljmp	PL17	;call to abstracted procedure
  5527  08D9                     l5762:	
  5528  08D9  300B               	movlw	11
  5529  08DA  0251               	subwf	fround@prec,w
  5530  08DB  1C03               	skipc
  5531  08DC  292D               	goto	l5770
  5532  08DD  3003               	movlw	3
  5533  08DE  00F9               	movwf	?___bmul
  5534  08DF  300A               	movlw	10
  5535  08E0  00F0               	movwf	?___lbmod
  5536  08E1  0851               	movf	fround@prec,w
  5537  08E2  216E               	fcall	___lbmod
  5538  08E3  120A  158A  275B   	fcall	___bmul
      +       120A  158A         
  5539  08E8  3E01               	addlw	low (__npowers_-__stringbase)
  5540  08E9  0084               	movwf	4
  5541  08EA  160A  118A  200A   	fcall	stringdir
      +       120A  158A         
  5542  08EF  00AD               	movwf	?___ftmul
  5543  08F0  160A  118A  200A   	fcall	stringdir
      +       120A  158A         
  5544  08F5  00AE               	movwf	?___ftmul+1
  5545  08F6  160A  118A  200A   	fcall	stringdir
      +       120A  158A         
  5546  08FB  00AF               	movwf	?___ftmul+2
  5547  08FC  3003               	movlw	3
  5548  08FD  00F9               	movwf	?___bmul
  5549  08FE  300A               	movlw	10
  5550  08FF  00F5               	movwf	?___lbdiv
  5551  0900  0851               	movf	fround@prec,w
  5552  0901  2153               	fcall	___lbdiv
  5553  0902  120A  158A  275B   	fcall	___bmul
      +       120A  158A         
  5554  0907  3E1C               	addlw	low ((__npowers_-__stringbase+27))
  5555  0908  0084               	movwf	4
  5556  0909  160A  118A  200A   	fcall	stringdir
      +       120A  158A         
  5557  090E  00B0               	movwf	?___ftmul+3
  5558  090F  160A  118A  200A   	fcall	stringdir
      +       120A  158A         
  5559  0914  00B1               	movwf	?___ftmul+4
  5560  0915  160A  118A  200A   	fcall	stringdir
      +       120A  158A         
  5561  091A  00B2               	movwf	?___ftmul+5
  5562  091B  120A  158A  26EC   	fcall	___ftmul
      +       120A  158A         
  5563  0920  2199  120A  158A   	fcall	PL30	;call to abstracted procedure
  5564  0923  303F               	movlw	63
  5565  0924  01AD               	clrf	?___ftmul
  5566  0925  01AE               	clrf	?___ftmul+1
  5567  0926  2191               	fcall	PL26	;call to abstracted procedure
  5568  0927  120A  158A  26EC   	fcall	___ftmul
      +       120A  158A         
  5569  092C  298A               	ljmp	PL17	;call to abstracted procedure
  5570  092D                     l5770:	
  5571  092D  303F               	movlw	63
  5572  092E  01AD               	clrf	?___ftmul
  5573  092F  01AE               	clrf	?___ftmul+1
  5574  0930  00AF               	movwf	?___ftmul+2
  5575  0931  3003               	movlw	3
  5576  0932  00F9               	movwf	?___bmul
  5577  0933  0851               	movf	fround@prec,w
  5578  0934  120A  158A  275B   	fcall	___bmul
      +       120A  158A         
  5579  0939  3E01               	addlw	low (__npowers_-__stringbase)
  5580  093A  0084               	movwf	4
  5581  093B  160A  118A  200A   	fcall	stringdir
      +       120A  158A         
  5582  0940  00B0               	movwf	?___ftmul+3
  5583  0941  160A  118A  200A   	fcall	stringdir
      +       120A  158A         
  5584  0946  00B1               	movwf	?___ftmul+4
  5585  0947  160A  118A  200A   	fcall	stringdir
      +       120A  158A         
  5586  094C  00B2               	movwf	?___ftmul+5
  5587  094D  120A  158A  26EC   	fcall	___ftmul
      +       120A  158A         
  5588  0952  298A               	ljmp	PL17	;call to abstracted procedure
  5589  0953                     __end_of_fround:	
  5590  0953                     __ptext742:	
  5591 ;; =============== function ___lbmod ends ============
  5592                           
  5593                           
  5594 ;; *************** function ___lbdiv *****************
  5595 ;; Defined at:
  5596 ;;		line 5 in file "C:\Program Files (x86)\HI-TECH Software\PICC\9.82\sources\lbdiv.c"
  5597 ;; Parameters:    Size  Location     Type
  5598 ;;  dividend        1    wreg     unsigned char 
  5599 ;;  divisor         1    5[COMMON] unsigned char 
  5600 ;; Auto vars:     Size  Location     Type
  5601 ;;  dividend        1    6[COMMON] unsigned char 
  5602 ;;  quotient        1    8[COMMON] unsigned char 
  5603 ;;  counter         1    7[COMMON] unsigned char 
  5604 ;; Return value:  Size  Location     Type
  5605 ;;                  1    wreg      unsigned char 
  5606 ;; Registers used:
  5607 ;;		wreg, status,2, status,0
  5608 ;; Tracked objects:
  5609 ;;		On entry : 60/0
  5610 ;;		On exit  : 60/0
  5611 ;;		Unchanged: FFF9F/0
  5612 ;; Data sizes:     COMMON   BANK0   BANK1   BANK3   BANK2
  5613 ;;      Params:         1       0       0       0       0
  5614 ;;      Locals:         3       0       0       0       0
  5615 ;;      Temps:          0       0       0       0       0
  5616 ;;      Totals:         4       0       0       0       0
  5617 ;;Total ram usage:        4 bytes
  5618 ;; Hardware stack levels used:    1
  5619 ;; This function calls:
  5620 ;;		Nothing
  5621 ;; This function is called by:
  5622 ;;		_fround
  5623 ;; This function uses a non-reentrant model
  5624 ;;
  5625  0953                     ___lbdiv:	
  5626                           
  5627                           ; Regs used in ___lbdiv: [wreg+status,2+status,0]
  5628                           ;___lbdiv@dividend stored from wreg
  5629  0953  00F6               	movwf	___lbdiv@dividend
  5630  0954  01F8               	clrf	___lbdiv@quotient
  5631  0955  0875               	movf	___lbdiv@divisor,w
  5632  0956  1903               	btfsc	3,2
  5633  0957  296C               	goto	l5300
  5634  0958  01F7               	clrf	___lbdiv@counter
  5635  0959                     l5286:	
  5636  0959  0AF7               	incf	___lbdiv@counter,f
  5637  095A  1BF5               	btfsc	___lbdiv@divisor,7
  5638  095B  295F               	goto	l2342
  5639  095C  1003               	clrc
  5640  095D  0DF5               	rlf	___lbdiv@divisor,f
  5641  095E  2959               	goto	l5286
  5642  095F                     l2342:	
  5643  095F  1003               	clrc
  5644  0960  0DF8               	rlf	___lbdiv@quotient,f
  5645  0961  0875               	movf	___lbdiv@divisor,w
  5646  0962  0276               	subwf	___lbdiv@dividend,w
  5647  0963  1C03               	skipc
  5648  0964  2969               	goto	L17
  5649  0965  0875               	movf	___lbdiv@divisor,w
  5650  0966  02F6               	subwf	___lbdiv@dividend,f
  5651  0967  1478               	bsf	___lbdiv@quotient,0
  5652  0968  1003               	clrc
  5653  0969                     L17:	
  5654  0969  0CF5               	rrf	___lbdiv@divisor,f
  5655  096A  0BF7               	decfsz	___lbdiv@counter,f
  5656  096B  295F               	goto	l2342
  5657  096C                     l5300:	
  5658  096C  0878               	movf	___lbdiv@quotient,w
  5659  096D  0008               	return
  5660  096E                     __end_of___lbdiv:	
  5661  096E                     __ptext741:	
  5662 ;; =============== function ___ftpack ends ============
  5663                           
  5664                           
  5665 ;; *************** function ___lbmod *****************
  5666 ;; Defined at:
  5667 ;;		line 5 in file "C:\Program Files (x86)\HI-TECH Software\PICC\9.82\sources\lbmod.c"
  5668 ;; Parameters:    Size  Location     Type
  5669 ;;  dividend        1    wreg     unsigned char 
  5670 ;;  divisor         1    0[COMMON] unsigned char 
  5671 ;; Auto vars:     Size  Location     Type
  5672 ;;  dividend        1    2[COMMON] unsigned char 
  5673 ;;  rem             1    4[COMMON] unsigned char 
  5674 ;;  counter         1    3[COMMON] unsigned char 
  5675 ;; Return value:  Size  Location     Type
  5676 ;;                  1    wreg      unsigned char 
  5677 ;; Registers used:
  5678 ;;		wreg, status,2, status,0
  5679 ;; Tracked objects:
  5680 ;;		On entry : 60/0
  5681 ;;		On exit  : 60/0
  5682 ;;		Unchanged: FFF9F/0
  5683 ;; Data sizes:     COMMON   BANK0   BANK1   BANK3   BANK2
  5684 ;;      Params:         1       0       0       0       0
  5685 ;;      Locals:         3       0       0       0       0
  5686 ;;      Temps:          1       0       0       0       0
  5687 ;;      Totals:         5       0       0       0       0
  5688 ;;Total ram usage:        5 bytes
  5689 ;; Hardware stack levels used:    1
  5690 ;; This function calls:
  5691 ;;		Nothing
  5692 ;; This function is called by:
  5693 ;;		_fround
  5694 ;; This function uses a non-reentrant model
  5695 ;;
  5696  096E                     ___lbmod:	
  5697                           
  5698                           ; Regs used in ___lbmod: [wreg+status,2+status,0]
  5699                           ;___lbmod@dividend stored from wreg
  5700  096E  00F2               	movwf	___lbmod@dividend
  5701  096F  3008               	movlw	8
  5702  0970  00F3               	movwf	___lbmod@counter
  5703  0971  01F4               	clrf	___lbmod@rem
  5704  0972                     l5308:	
  5705  0972  0872               	movf	___lbmod@dividend,w
  5706  0973  00F1               	movwf	??___lbmod
  5707  0974  3007               	movlw	7
  5708  0975  1003               	clrc
  5709  0976                     L16:	
  5710  0976  0CF1               	rrf	??___lbmod,f
  5711  0977  3EFF               	addlw	-1
  5712  0978  1003               	clrc
  5713  0979  1D03               	skipz
  5714  097A  2976               	goto	L16
  5715  097B  0D74               	rlf	___lbmod@rem,w
  5716  097C  0471               	iorwf	??___lbmod,w
  5717  097D  00F4               	movwf	___lbmod@rem
  5718  097E  1003               	clrc
  5719  097F  0DF2               	rlf	___lbmod@dividend,f
  5720  0980  0870               	movf	___lbmod@divisor,w
  5721  0981  0274               	subwf	___lbmod@rem,w
  5722  0982  1C03               	skipc
  5723  0983  2986               	goto	l5316
  5724  0984  0870               	movf	___lbmod@divisor,w
  5725  0985  02F4               	subwf	___lbmod@rem,f
  5726  0986                     l5316:	
  5727  0986  0BF3               	decfsz	___lbmod@counter,f
  5728  0987  2972               	goto	l5308
  5729  0988  0874               	movf	___lbmod@rem,w
  5730  0989  0008               	return
  5731  098A                     __end_of___lbmod:	
  5732  098A                     PL17:	
  5733  098A  082D               	movf	?___ftmul,w
  5734  098B  00C8               	movwf	?_fround
  5735  098C  082E               	movf	?___ftmul+1,w
  5736  098D  00C9               	movwf	?_fround+1
  5737  098E  082F               	movf	?___ftmul+2,w
  5738  098F  00CA               	movwf	?_fround+2
  5739  0990  0008               	return
  5740  0991                     PL26:	
  5741  0991  00AF               	movwf	?___ftmul+2
  5742  0992  084E               	movf	_fround$2941,w
  5743  0993  00B0               	movwf	?___ftmul+3
  5744  0994  084F               	movf	_fround$2941+1,w
  5745  0995  00B1               	movwf	?___ftmul+4
  5746  0996  0850               	movf	_fround$2941+2,w
  5747  0997  00B2               	movwf	?___ftmul+5
  5748  0998  0008               	return
  5749  0999                     PL30:	
  5750  0999  082D               	movf	?___ftmul,w
  5751  099A  00CE               	movwf	_fround$2941
  5752  099B  082E               	movf	?___ftmul+1,w
  5753  099C  00CF               	movwf	_fround$2941+1
  5754  099D  082F               	movf	?___ftmul+2,w
  5755  099E  00D0               	movwf	_fround$2941+2
  5756  099F  0008               	return
  5757                           
  5758                           	psect	text728
  5759  0C9F                     __ptext728:	
  5760 ;; =============== function ___lltoft ends ============
  5761                           
  5762                           
  5763 ;; *************** function ___awtoft *****************
  5764 ;; Defined at:
  5765 ;;		line 33 in file "C:\Program Files (x86)\HI-TECH Software\PICC\9.82\sources\awtoft.c"
  5766 ;; Parameters:    Size  Location     Type
  5767 ;;  c               2    8[COMMON] int 
  5768 ;; Auto vars:     Size  Location     Type
  5769 ;;  sign            1   11[COMMON] unsigned char 
  5770 ;; Return value:  Size  Location     Type
  5771 ;;                  3    8[COMMON] float 
  5772 ;; Registers used:
  5773 ;;		wreg, status,2, status,0, pclath, cstack
  5774 ;; Tracked objects:
  5775 ;;		On entry : 60/20
  5776 ;;		On exit  : 60/20
  5777 ;;		Unchanged: FFF9F/0
  5778 ;; Data sizes:     COMMON   BANK0   BANK1   BANK3   BANK2
  5779 ;;      Params:         3       0       0       0       0
  5780 ;;      Locals:         1       0       0       0       0
  5781 ;;      Temps:          0       0       0       0       0
  5782 ;;      Totals:         4       0       0       0       0
  5783 ;;Total ram usage:        4 bytes
  5784 ;; Hardware stack levels used:    1
  5785 ;; Hardware stack levels required when called:    1
  5786 ;; This function calls:
  5787 ;;		___ftpack
  5788 ;; This function is called by:
  5789 ;;		_main
  5790 ;; This function uses a non-reentrant model
  5791 ;;
  5792  0C9F                     ___awtoft:	
  5793                           
  5794                           ; Regs used in ___awtoft: [wreg+status,2+status,0+pclath+cstack]
  5795  0C9F  01FB               	clrf	___awtoft@sign
  5796  0CA0  1FF9               	btfss	___awtoft@c+1,7
  5797  0CA1  2CA9               	goto	l5712
  5798  0CA2  09F8               	comf	___awtoft@c,f
  5799  0CA3  09F9               	comf	___awtoft@c+1,f
  5800  0CA4  0AF8               	incf	___awtoft@c,f
  5801  0CA5  1903               	skipnz
  5802  0CA6  0AF9               	incf	___awtoft@c+1,f
  5803  0CA7  01FB               	clrf	___awtoft@sign
  5804  0CA8  0AFB               	incf	___awtoft@sign,f
  5805  0CA9                     l5712:	
  5806  0CA9  0878               	movf	___awtoft@c,w
  5807  0CAA  00F0               	movwf	?___ftpack
  5808  0CAB  0879               	movf	___awtoft@c+1,w
  5809  0CAC  00F1               	movwf	?___ftpack+1
  5810  0CAD  308E               	movlw	142
  5811  0CAE  01F2               	clrf	?___ftpack+2
  5812  0CAF  00F3               	movwf	?___ftpack+3
  5813  0CB0  087B               	movf	___awtoft@sign,w
  5814  0CB1  00F4               	movwf	?___ftpack+4
  5815  0CB2  2769               	fcall	___ftpack
  5816  0CB3  0870               	movf	?___ftpack,w
  5817  0CB4  00F8               	movwf	?___awtoft
  5818  0CB5  0871               	movf	?___ftpack+1,w
  5819  0CB6  00F9               	movwf	?___awtoft+1
  5820  0CB7  0872               	movf	?___ftpack+2,w
  5821  0CB8  00FA               	movwf	?___awtoft+2
  5822  0CB9  0008               	return
  5823  0CBA                     __end_of___awtoft:	
  5824  0CBA                     __ptext727:	
  5825 ;; =============== function _I2C_EEOUT ends ============
  5826                           
  5827                           
  5828 ;; *************** function ___lltoft *****************
  5829 ;; Defined at:
  5830 ;;		line 36 in file "C:\Program Files (x86)\HI-TECH Software\PICC\9.82\sources\lltoft.c"
  5831 ;; Parameters:    Size  Location     Type
  5832 ;;  c               4    8[COMMON] unsigned long 
  5833 ;; Auto vars:     Size  Location     Type
  5834 ;;  exp             1   12[COMMON] unsigned char 
  5835 ;; Return value:  Size  Location     Type
  5836 ;;                  3    8[COMMON] float 
  5837 ;; Registers used:
  5838 ;;		wreg, status,2, status,0, pclath, cstack
  5839 ;; Tracked objects:
  5840 ;;		On entry : 60/20
  5841 ;;		On exit  : 60/20
  5842 ;;		Unchanged: FFF9F/0
  5843 ;; Data sizes:     COMMON   BANK0   BANK1   BANK3   BANK2
  5844 ;;      Params:         4       0       0       0       0
  5845 ;;      Locals:         1       0       0       0       0
  5846 ;;      Temps:          0       0       0       0       0
  5847 ;;      Totals:         5       0       0       0       0
  5848 ;;Total ram usage:        5 bytes
  5849 ;; Hardware stack levels used:    1
  5850 ;; Hardware stack levels required when called:    1
  5851 ;; This function calls:
  5852 ;;		___ftpack
  5853 ;; This function is called by:
  5854 ;;		_sprintf
  5855 ;; This function uses a non-reentrant model
  5856 ;;
  5857  0CBA                     ___lltoft:	
  5858                           
  5859                           ; Regs used in ___lltoft: [wreg+status,2+status,0+pclath+cstack]
  5860  0CBA  308E               	movlw	142
  5861  0CBB  00FC               	movwf	___lltoft@exp
  5862  0CBC                     l5720:	
  5863  0CBC  30FF               	movlw	255
  5864  0CBD  057B               	andwf	___lltoft@c+3,w
  5865  0CBE  1903               	btfsc	3,2
  5866  0CBF  2CC7               	goto	l5722
  5867  0CC0  1003               	clrc
  5868  0CC1  0CFB               	rrf	___lltoft@c+3,f
  5869  0CC2  0CFA               	rrf	___lltoft@c+2,f
  5870  0CC3  0CF9               	rrf	___lltoft@c+1,f
  5871  0CC4  0CF8               	rrf	___lltoft@c,f
  5872  0CC5  0AFC               	incf	___lltoft@exp,f
  5873  0CC6  2CBC               	goto	l5720
  5874  0CC7                     l5722:	
  5875  0CC7  0878               	movf	___lltoft@c,w
  5876  0CC8  00F0               	movwf	?___ftpack
  5877  0CC9  0879               	movf	___lltoft@c+1,w
  5878  0CCA  00F1               	movwf	?___ftpack+1
  5879  0CCB  087A               	movf	___lltoft@c+2,w
  5880  0CCC  00F2               	movwf	?___ftpack+2
  5881  0CCD  087C               	movf	___lltoft@exp,w
  5882  0CCE  00F3               	movwf	?___ftpack+3
  5883  0CCF  01F4               	clrf	?___ftpack+4
  5884  0CD0  2769               	fcall	___ftpack
  5885  0CD1  0870               	movf	?___ftpack,w
  5886  0CD2  00F8               	movwf	?___lltoft
  5887  0CD3  0871               	movf	?___ftpack+1,w
  5888  0CD4  00F9               	movwf	?___lltoft+1
  5889  0CD5  0872               	movf	?___ftpack+2,w
  5890  0CD6  00FA               	movwf	?___lltoft+2
  5891  0CD7  0008               	return
  5892  0CD8                     __end_of___lltoft:	
  5893  0CD8                     __ptext723:	
  5894 ;; =============== function ___ftsub ends ============
  5895                           
  5896                           
  5897 ;; *************** function _scale *****************
  5898 ;; Defined at:
  5899 ;;		line 422 in file "C:\Program Files (x86)\HI-TECH Software\PICC\9.82\lib\doprnt.c"
  5900 ;; Parameters:    Size  Location     Type
  5901 ;;  scl             1    wreg     char 
  5902 ;; Auto vars:     Size  Location     Type
  5903 ;;  scl             1   38[BANK0 ] char 
  5904 ;; Return value:  Size  Location     Type
  5905 ;;                  3   28[BANK0 ] char 
  5906 ;; Registers used:
  5907 ;;		wreg, fsr0l, fsr0h, status,2, status,0, pclath, cstack
  5908 ;; Tracked objects:
  5909 ;;		On entry : 60/20
  5910 ;;		On exit  : 60/0
  5911 ;;		Unchanged: FFF9F/0
  5912 ;; Data sizes:     COMMON   BANK0   BANK1   BANK3   BANK2
  5913 ;;      Params:         0       3       0       0       0
  5914 ;;      Locals:         0       4       0       0       0
  5915 ;;      Temps:          0       4       0       0       0
  5916 ;;      Totals:         0      11       0       0       0
  5917 ;;Total ram usage:       11 bytes
  5918 ;; Hardware stack levels used:    1
  5919 ;; Hardware stack levels required when called:    2
  5920 ;; This function calls:
  5921 ;;		___awmod
  5922 ;;		___awdiv
  5923 ;;		___ftmul
  5924 ;;		___bmul
  5925 ;; This function is called by:
  5926 ;;		_sprintf
  5927 ;; This function uses a non-reentrant model
  5928 ;;
  5929  0CD8                     _scale:	
  5930                           
  5931                           ; Regs used in _scale: [wreg-fsr0h+status,2+status,0+pclath+cstack]
  5932                           ;scale@scl stored from wreg
  5933  0CD8  1283               	bcf	3,5	;RP0=0, select bank0
  5934  0CD9  00C6               	movwf	scale@scl
  5935  0CDA  1FC6               	btfss	scale@scl,7
  5936  0CDB  2DA4               	goto	l5796
  5937  0CDC  09C6               	comf	scale@scl,f
  5938  0CDD  0AC6               	incf	scale@scl,f
  5939  0CDE  0846               	movf	scale@scl,w
  5940  0CDF  3A80               	xorlw	128
  5941  0CE0  3E12               	addlw	-238
  5942  0CE1  1C03               	skipc
  5943  0CE2  2D48               	goto	l5786
  5944  0CE3  300A               	movlw	10
  5945  0CE4  27CB  120A  158A   	fcall	PL16	;call to abstracted procedure
  5946  0CE7  26AF  120A  158A   	fcall	___awmod
  5947  0CEA  0871               	movf	?___awmod+1,w
  5948  0CEB  00F9               	movwf	?___awdiv+3
  5949  0CEC  0870               	movf	?___awmod,w
  5950  0CED  00F8               	movwf	?___awdiv+2
  5951  0CEE  266A  120A  158A   	fcall	___awdiv
  5952  0CF1  27E0               	fcall	PL23	;call to abstracted procedure
  5953  0CF2  3E1C               	addlw	low ((__npowers_-__stringbase+27))
  5954  0CF3  0084               	movwf	4
  5955  0CF4  160A  118A  200A   	fcall	stringdir
      +       120A  158A         
  5956  0CF9  00AD               	movwf	?___ftmul
  5957  0CFA  160A  118A  200A   	fcall	stringdir
      +       120A  158A         
  5958  0CFF  00AE               	movwf	?___ftmul+1
  5959  0D00  160A  118A  200A   	fcall	stringdir
      +       120A  158A         
  5960  0D05  27F0  120A  158A   	fcall	PL25	;call to abstracted procedure
  5961  0D08  1BF8               	btfsc	?___awdiv+2,7
  5962  0D09  03F9               	decf	?___awdiv+3,f
  5963  0D0A  266A  120A  158A   	fcall	___awdiv
  5964  0D0D  27BC               	fcall	PL10	;call to abstracted procedure
  5965  0D0E  3E37               	addlw	low ((__npowers_-__stringbase+54))
  5966  0D0F  0084               	movwf	4
  5967  0D10  160A  118A  200A   	fcall	stringdir
      +       120A  158A         
  5968  0D15  00B0               	movwf	?___ftmul+3
  5969  0D16  160A  118A  200A   	fcall	stringdir
      +       120A  158A         
  5970  0D1B  00B1               	movwf	?___ftmul+4
  5971  0D1C  160A  118A  200A   	fcall	stringdir
      +       120A  158A         
  5972  0D21  00B2               	movwf	?___ftmul+5
  5973  0D22  26EC  120A  158A   	fcall	___ftmul
  5974  0D25  27A7  120A  158A   	fcall	PL8	;call to abstracted procedure
  5975  0D28  1BF2               	btfsc	?___awmod+2,7
  5976  0D29  03F3               	decf	?___awmod+3,f
  5977  0D2A  26AF  120A  158A   	fcall	___awmod
  5978  0D2D  27B4               	fcall	PL9	;call to abstracted procedure
  5979  0D2E  3E01               	addlw	low (__npowers_-__stringbase)
  5980  0D2F  0084               	movwf	4
  5981  0D30  160A  118A  200A   	fcall	stringdir
      +       120A  158A         
  5982  0D35  00AD               	movwf	?___ftmul
  5983  0D36  160A  118A  200A   	fcall	stringdir
      +       120A  158A         
  5984  0D3B  00AE               	movwf	?___ftmul+1
  5985  0D3C  160A  118A  200A   	fcall	stringdir
      +       120A  158A         
  5986  0D41  27E8  120A  158A   	fcall	PL24	;call to abstracted procedure
  5987  0D44  26EC  120A  158A   	fcall	___ftmul
  5988  0D47  2FC4               	ljmp	PL11	;call to abstracted procedure
  5989  0D48                     l5786:	
  5990  0D48  0846               	movf	scale@scl,w
  5991  0D49  3A80               	xorlw	128
  5992  0D4A  3E75               	addlw	-139
  5993  0D4B  1C03               	skipc
  5994  0D4C  2D8D               	goto	l5792
  5995  0D4D  300A               	movlw	10
  5996  0D4E  00F0               	movwf	?___awmod
  5997  0D4F  01F1               	clrf	?___awmod+1
  5998  0D50  0846               	movf	scale@scl,w
  5999  0D51  00F2               	movwf	?___awmod+2
  6000  0D52  01F3               	clrf	?___awmod+3
  6001  0D53  1BF2               	btfsc	?___awmod+2,7
  6002  0D54  03F3               	decf	?___awmod+3,f
  6003  0D55  26AF  120A  158A   	fcall	___awmod
  6004  0D58  27B4               	fcall	PL9	;call to abstracted procedure
  6005  0D59  3E01               	addlw	low (__npowers_-__stringbase)
  6006  0D5A  0084               	movwf	4
  6007  0D5B  160A  118A  200A   	fcall	stringdir
      +       120A  158A         
  6008  0D60  00AD               	movwf	?___ftmul
  6009  0D61  160A  118A  200A   	fcall	stringdir
      +       120A  158A         
  6010  0D66  00AE               	movwf	?___ftmul+1
  6011  0D67  160A  118A  200A   	fcall	stringdir
      +       120A  158A         
  6012  0D6C  27F8  120A  158A   	fcall	PL27	;call to abstracted procedure
  6013  0D6F  1BF8               	btfsc	?___awdiv+2,7
  6014  0D70  03F9               	decf	?___awdiv+3,f
  6015  0D71  266A  120A  158A   	fcall	___awdiv
  6016  0D74  27BC               	fcall	PL10	;call to abstracted procedure
  6017  0D75  3E1C               	addlw	low ((__npowers_-__stringbase+27))
  6018  0D76  0084               	movwf	4
  6019  0D77  160A  118A  200A   	fcall	stringdir
      +       120A  158A         
  6020  0D7C  00B0               	movwf	?___ftmul+3
  6021  0D7D  160A  118A  200A   	fcall	stringdir
      +       120A  158A         
  6022  0D82  00B1               	movwf	?___ftmul+4
  6023  0D83  160A  118A  200A   	fcall	stringdir
      +       120A  158A         
  6024  0D88  00B2               	movwf	?___ftmul+5
  6025  0D89  26EC  120A  158A   	fcall	___ftmul
  6026  0D8C  2FC4               	ljmp	PL11	;call to abstracted procedure
  6027  0D8D                     l5792:	
  6028  0D8D  3003               	movlw	3
  6029  0D8E  00F9               	movwf	?___bmul
  6030  0D8F  0846               	movf	scale@scl,w
  6031  0D90  275B               	fcall	___bmul
  6032  0D91  3E01               	addlw	low (__npowers_-__stringbase)
  6033  0D92  0084               	movwf	4
  6034  0D93  160A  118A  200A   	fcall	stringdir
      +       120A  158A         
  6035  0D98  00BC               	movwf	?_scale
  6036  0D99  160A  118A  200A   	fcall	stringdir
      +       120A  158A         
  6037  0D9E  00BD               	movwf	?_scale+1
  6038  0D9F  160A  118A  200A   	fcall	stringdir
  6039  0DA2  00BE               	movwf	?_scale+2
  6040  0DA3  0008               	return
  6041  0DA4                     l5796:	
  6042  0DA4  0846               	movf	scale@scl,w
  6043  0DA5  3A80               	xorlw	128
  6044  0DA6  3E12               	addlw	-238
  6045  0DA7  1C03               	skipc
  6046  0DA8  2E0E               	goto	l5804
  6047  0DA9  300A               	movlw	10
  6048  0DAA  27CB  120A  158A   	fcall	PL16	;call to abstracted procedure
  6049  0DAD  26AF  120A  158A   	fcall	___awmod
  6050  0DB0  0871               	movf	?___awmod+1,w
  6051  0DB1  00F9               	movwf	?___awdiv+3
  6052  0DB2  0870               	movf	?___awmod,w
  6053  0DB3  00F8               	movwf	?___awdiv+2
  6054  0DB4  266A  120A  158A   	fcall	___awdiv
  6055  0DB7  27E0               	fcall	PL23	;call to abstracted procedure
  6056  0DB8  3E43               	addlw	low ((__powers_-__stringbase+27))
  6057  0DB9  0084               	movwf	4
  6058  0DBA  160A  118A  200A   	fcall	stringdir
      +       120A  158A         
  6059  0DBF  00AD               	movwf	?___ftmul
  6060  0DC0  160A  118A  200A   	fcall	stringdir
      +       120A  158A         
  6061  0DC5  00AE               	movwf	?___ftmul+1
  6062  0DC6  160A  118A  200A   	fcall	stringdir
      +       120A  158A         
  6063  0DCB  27F0  120A  158A   	fcall	PL25	;call to abstracted procedure
  6064  0DCE  1BF8               	btfsc	?___awdiv+2,7
  6065  0DCF  03F9               	decf	?___awdiv+3,f
  6066  0DD0  266A  120A  158A   	fcall	___awdiv
  6067  0DD3  27BC               	fcall	PL10	;call to abstracted procedure
  6068  0DD4  3E5E               	addlw	low ((__powers_-__stringbase+54))
  6069  0DD5  0084               	movwf	4
  6070  0DD6  160A  118A  200A   	fcall	stringdir
      +       120A  158A         
  6071  0DDB  00B0               	movwf	?___ftmul+3
  6072  0DDC  160A  118A  200A   	fcall	stringdir
      +       120A  158A         
  6073  0DE1  00B1               	movwf	?___ftmul+4
  6074  0DE2  160A  118A  200A   	fcall	stringdir
      +       120A  158A         
  6075  0DE7  00B2               	movwf	?___ftmul+5
  6076  0DE8  26EC  120A  158A   	fcall	___ftmul
  6077  0DEB  27A7  120A  158A   	fcall	PL8	;call to abstracted procedure
  6078  0DEE  1BF2               	btfsc	?___awmod+2,7
  6079  0DEF  03F3               	decf	?___awmod+3,f
  6080  0DF0  26AF  120A  158A   	fcall	___awmod
  6081  0DF3  27B4               	fcall	PL9	;call to abstracted procedure
  6082  0DF4  3E28               	addlw	low (__powers_-__stringbase)
  6083  0DF5  0084               	movwf	4
  6084  0DF6  160A  118A  200A   	fcall	stringdir
      +       120A  158A         
  6085  0DFB  00AD               	movwf	?___ftmul
  6086  0DFC  160A  118A  200A   	fcall	stringdir
      +       120A  158A         
  6087  0E01  00AE               	movwf	?___ftmul+1
  6088  0E02  160A  118A  200A   	fcall	stringdir
      +       120A  158A         
  6089  0E07  27E8  120A  158A   	fcall	PL24	;call to abstracted procedure
  6090  0E0A  26EC  120A  158A   	fcall	___ftmul
  6091  0E0D  2FC4               	ljmp	PL11	;call to abstracted procedure
  6092  0E0E                     l5804:	
  6093  0E0E  0846               	movf	scale@scl,w
  6094  0E0F  3A80               	xorlw	128
  6095  0E10  3E75               	addlw	-139
  6096  0E11  1C03               	skipc
  6097  0E12  2E53               	goto	l5810
  6098  0E13  300A               	movlw	10
  6099  0E14  00F0               	movwf	?___awmod
  6100  0E15  01F1               	clrf	?___awmod+1
  6101  0E16  0846               	movf	scale@scl,w
  6102  0E17  00F2               	movwf	?___awmod+2
  6103  0E18  01F3               	clrf	?___awmod+3
  6104  0E19  1BF2               	btfsc	?___awmod+2,7
  6105  0E1A  03F3               	decf	?___awmod+3,f
  6106  0E1B  26AF  120A  158A   	fcall	___awmod
  6107  0E1E  27B4               	fcall	PL9	;call to abstracted procedure
  6108  0E1F  3E28               	addlw	low (__powers_-__stringbase)
  6109  0E20  0084               	movwf	4
  6110  0E21  160A  118A  200A   	fcall	stringdir
      +       120A  158A         
  6111  0E26  00AD               	movwf	?___ftmul
  6112  0E27  160A  118A  200A   	fcall	stringdir
      +       120A  158A         
  6113  0E2C  00AE               	movwf	?___ftmul+1
  6114  0E2D  160A  118A  200A   	fcall	stringdir
      +       120A  158A         
  6115  0E32  27F8  120A  158A   	fcall	PL27	;call to abstracted procedure
  6116  0E35  1BF8               	btfsc	?___awdiv+2,7
  6117  0E36  03F9               	decf	?___awdiv+3,f
  6118  0E37  266A  120A  158A   	fcall	___awdiv
  6119  0E3A  27BC               	fcall	PL10	;call to abstracted procedure
  6120  0E3B  3E43               	addlw	low ((__powers_-__stringbase+27))
  6121  0E3C  0084               	movwf	4
  6122  0E3D  160A  118A  200A   	fcall	stringdir
      +       120A  158A         
  6123  0E42  00B0               	movwf	?___ftmul+3
  6124  0E43  160A  118A  200A   	fcall	stringdir
      +       120A  158A         
  6125  0E48  00B1               	movwf	?___ftmul+4
  6126  0E49  160A  118A  200A   	fcall	stringdir
      +       120A  158A         
  6127  0E4E  00B2               	movwf	?___ftmul+5
  6128  0E4F  26EC  120A  158A   	fcall	___ftmul
  6129  0E52  2FC4               	ljmp	PL11	;call to abstracted procedure
  6130  0E53                     l5810:	
  6131  0E53  3003               	movlw	3
  6132  0E54  00F9               	movwf	?___bmul
  6133  0E55  0846               	movf	scale@scl,w
  6134  0E56  275B               	fcall	___bmul
  6135  0E57  3E28               	addlw	low (__powers_-__stringbase)
  6136  0E58  0084               	movwf	4
  6137  0E59  160A  118A  200A   	fcall	stringdir
      +       120A  158A         
  6138  0E5E  00BC               	movwf	?_scale
  6139  0E5F  160A  118A  200A   	fcall	stringdir
      +       120A  158A         
  6140  0E64  00BD               	movwf	?_scale+1
  6141  0E65  160A  118A  200A   	fcall	stringdir
  6142  0E68  00BE               	movwf	?_scale+2
  6143  0E69  0008               	return
  6144  0E6A                     __end_of_scale:	
  6145  0E6A                     __ptext738:	
  6146 ;; =============== function ___llmod ends ============
  6147                           
  6148                           
  6149 ;; *************** function ___awdiv *****************
  6150 ;; Defined at:
  6151 ;;		line 5 in file "C:\Program Files (x86)\HI-TECH Software\PICC\9.82\sources\awdiv.c"
  6152 ;; Parameters:    Size  Location     Type
  6153 ;;  divisor         2    6[COMMON] int 
  6154 ;;  dividend        2    8[COMMON] int 
  6155 ;; Auto vars:     Size  Location     Type
  6156 ;;  quotient        2   12[COMMON] int 
  6157 ;;  sign            1   11[COMMON] unsigned char 
  6158 ;;  counter         1   10[COMMON] unsigned char 
  6159 ;; Return value:  Size  Location     Type
  6160 ;;                  2    6[COMMON] int 
  6161 ;; Registers used:
  6162 ;;		wreg, status,2, status,0
  6163 ;; Tracked objects:
  6164 ;;		On entry : 40/20
  6165 ;;		On exit  : 40/20
  6166 ;;		Unchanged: FFFBF/0
  6167 ;; Data sizes:     COMMON   BANK0   BANK1   BANK3   BANK2
  6168 ;;      Params:         4       0       0       0       0
  6169 ;;      Locals:         4       0       0       0       0
  6170 ;;      Temps:          0       0       0       0       0
  6171 ;;      Totals:         8       0       0       0       0
  6172 ;;Total ram usage:        8 bytes
  6173 ;; Hardware stack levels used:    1
  6174 ;; This function calls:
  6175 ;;		Nothing
  6176 ;; This function is called by:
  6177 ;;		_scale
  6178 ;;		_sprintf
  6179 ;; This function uses a non-reentrant model
  6180 ;;
  6181  0E6A                     ___awdiv:	
  6182                           
  6183                           ; Regs used in ___awdiv: [wreg+status,2+status,0]
  6184  0E6A  01FB               	clrf	___awdiv@sign
  6185  0E6B  1FF7               	btfss	___awdiv@divisor+1,7
  6186  0E6C  2E74               	goto	l5396
  6187  0E6D  09F6               	comf	___awdiv@divisor,f
  6188  0E6E  09F7               	comf	___awdiv@divisor+1,f
  6189  0E6F  0AF6               	incf	___awdiv@divisor,f
  6190  0E70  1903               	skipnz
  6191  0E71  0AF7               	incf	___awdiv@divisor+1,f
  6192  0E72  01FB               	clrf	___awdiv@sign
  6193  0E73  0AFB               	incf	___awdiv@sign,f
  6194  0E74                     l5396:	
  6195  0E74  1FF9               	btfss	___awdiv@dividend+1,7
  6196  0E75  2E7D               	goto	l5402
  6197  0E76  09F8               	comf	___awdiv@dividend,f
  6198  0E77  09F9               	comf	___awdiv@dividend+1,f
  6199  0E78  0AF8               	incf	___awdiv@dividend,f
  6200  0E79  1903               	skipnz
  6201  0E7A  0AF9               	incf	___awdiv@dividend+1,f
  6202  0E7B  3001               	movlw	1
  6203  0E7C  06FB               	xorwf	___awdiv@sign,f
  6204  0E7D                     l5402:	
  6205  0E7D  01FC               	clrf	___awdiv@quotient
  6206  0E7E  01FD               	clrf	___awdiv@quotient+1
  6207  0E7F  0877               	movf	___awdiv@divisor+1,w
  6208  0E80  0476               	iorwf	___awdiv@divisor,w
  6209  0E81  1903               	skipnz
  6210  0E82  2EA2               	goto	l5424
  6211  0E83  01FA               	clrf	___awdiv@counter
  6212  0E84                     L14:	
  6213  0E84  0AFA               	incf	___awdiv@counter,f
  6214  0E85  1BF7               	btfsc	___awdiv@divisor+1,7
  6215  0E86  2E8B               	goto	l5412
  6216  0E87  1003               	clrc
  6217  0E88  0DF6               	rlf	___awdiv@divisor,f
  6218  0E89  0DF7               	rlf	___awdiv@divisor+1,f
  6219  0E8A  2E84               	goto	L14
  6220  0E8B                     l5412:	
  6221  0E8B  1003               	clrc
  6222  0E8C  0DFC               	rlf	___awdiv@quotient,f
  6223  0E8D  0DFD               	rlf	___awdiv@quotient+1,f
  6224  0E8E  0877               	movf	___awdiv@divisor+1,w
  6225  0E8F  0279               	subwf	___awdiv@dividend+1,w
  6226  0E90  1D03               	skipz
  6227  0E91  2E94               	goto	u2435
  6228  0E92  0876               	movf	___awdiv@divisor,w
  6229  0E93  0278               	subwf	___awdiv@dividend,w
  6230  0E94                     u2435:	
  6231  0E94  1C03               	skipc
  6232  0E95  2E9E               	goto	L15
  6233  0E96  0876               	movf	___awdiv@divisor,w
  6234  0E97  02F8               	subwf	___awdiv@dividend,f
  6235  0E98  0877               	movf	___awdiv@divisor+1,w
  6236  0E99  1C03               	skipc
  6237  0E9A  03F9               	decf	___awdiv@dividend+1,f
  6238  0E9B  02F9               	subwf	___awdiv@dividend+1,f
  6239  0E9C  147C               	bsf	___awdiv@quotient,0
  6240  0E9D  1003               	clrc
  6241  0E9E                     L15:	
  6242  0E9E  0CF7               	rrf	___awdiv@divisor+1,f
  6243  0E9F  0CF6               	rrf	___awdiv@divisor,f
  6244  0EA0  0BFA               	decfsz	___awdiv@counter,f
  6245  0EA1  2E8B               	goto	l5412
  6246  0EA2                     l5424:	
  6247  0EA2  087B               	movf	___awdiv@sign,w
  6248  0EA3  1903               	btfsc	3,2
  6249  0EA4  2EAA               	goto	l5428
  6250  0EA5  09FC               	comf	___awdiv@quotient,f
  6251  0EA6  09FD               	comf	___awdiv@quotient+1,f
  6252  0EA7  0AFC               	incf	___awdiv@quotient,f
  6253  0EA8  1903               	skipnz
  6254  0EA9  0AFD               	incf	___awdiv@quotient+1,f
  6255  0EAA                     l5428:	
  6256  0EAA  087D               	movf	___awdiv@quotient+1,w
  6257  0EAB  00F7               	movwf	?___awdiv+1
  6258  0EAC  087C               	movf	___awdiv@quotient,w
  6259  0EAD  00F6               	movwf	?___awdiv
  6260  0EAE  0008               	return
  6261  0EAF                     __end_of___awdiv:	
  6262  0EAF                     __ptext733:	
  6263 ;; =============== function _pause ends ============
  6264                           
  6265                           
  6266 ;; *************** function ___awmod *****************
  6267 ;; Defined at:
  6268 ;;		line 5 in file "C:\Program Files (x86)\HI-TECH Software\PICC\9.82\sources\awmod.c"
  6269 ;; Parameters:    Size  Location     Type
  6270 ;;  divisor         2    0[COMMON] int 
  6271 ;;  dividend        2    2[COMMON] int 
  6272 ;; Auto vars:     Size  Location     Type
  6273 ;;  sign            1    5[COMMON] unsigned char 
  6274 ;;  counter         1    4[COMMON] unsigned char 
  6275 ;; Return value:  Size  Location     Type
  6276 ;;                  2    0[COMMON] int 
  6277 ;; Registers used:
  6278 ;;		wreg, status,2, status,0
  6279 ;; Tracked objects:
  6280 ;;		On entry : 60/0
  6281 ;;		On exit  : 60/0
  6282 ;;		Unchanged: FFF9F/0
  6283 ;; Data sizes:     COMMON   BANK0   BANK1   BANK3   BANK2
  6284 ;;      Params:         4       0       0       0       0
  6285 ;;      Locals:         2       0       0       0       0
  6286 ;;      Temps:          0       0       0       0       0
  6287 ;;      Totals:         6       0       0       0       0
  6288 ;;Total ram usage:        6 bytes
  6289 ;; Hardware stack levels used:    1
  6290 ;; This function calls:
  6291 ;;		Nothing
  6292 ;; This function is called by:
  6293 ;;		_scale
  6294 ;; This function uses a non-reentrant model
  6295 ;;
  6296  0EAF                     ___awmod:	
  6297                           
  6298                           ; Regs used in ___awmod: [wreg+status,2+status,0]
  6299  0EAF  01F5               	clrf	___awmod@sign
  6300  0EB0  1FF3               	btfss	___awmod@dividend+1,7
  6301  0EB1  2EB9               	goto	l5514
  6302  0EB2  09F2               	comf	___awmod@dividend,f
  6303  0EB3  09F3               	comf	___awmod@dividend+1,f
  6304  0EB4  0AF2               	incf	___awmod@dividend,f
  6305  0EB5  1903               	skipnz
  6306  0EB6  0AF3               	incf	___awmod@dividend+1,f
  6307  0EB7  01F5               	clrf	___awmod@sign
  6308  0EB8  0AF5               	incf	___awmod@sign,f
  6309  0EB9                     l5514:	
  6310  0EB9  1FF1               	btfss	___awmod@divisor+1,7
  6311  0EBA  2EC0               	goto	l5518
  6312  0EBB  09F0               	comf	___awmod@divisor,f
  6313  0EBC  09F1               	comf	___awmod@divisor+1,f
  6314  0EBD  0AF0               	incf	___awmod@divisor,f
  6315  0EBE  1903               	skipnz
  6316  0EBF  0AF1               	incf	___awmod@divisor+1,f
  6317  0EC0                     l5518:	
  6318  0EC0  0871               	movf	___awmod@divisor+1,w
  6319  0EC1  0470               	iorwf	___awmod@divisor,w
  6320  0EC2  1903               	skipnz
  6321  0EC3  2EDF               	goto	l5534
  6322  0EC4  01F4               	clrf	___awmod@counter
  6323  0EC5                     L7:	
  6324  0EC5  0AF4               	incf	___awmod@counter,f
  6325  0EC6  1BF1               	btfsc	___awmod@divisor+1,7
  6326  0EC7  2ECC               	goto	l5526
  6327  0EC8  1003               	clrc
  6328  0EC9  0DF0               	rlf	___awmod@divisor,f
  6329  0ECA  0DF1               	rlf	___awmod@divisor+1,f
  6330  0ECB  2EC5               	goto	L7
  6331  0ECC                     l5526:	
  6332  0ECC  0871               	movf	___awmod@divisor+1,w
  6333  0ECD  0273               	subwf	___awmod@dividend+1,w
  6334  0ECE  1D03               	skipz
  6335  0ECF  2ED2               	goto	u2625
  6336  0ED0  0870               	movf	___awmod@divisor,w
  6337  0ED1  0272               	subwf	___awmod@dividend,w
  6338  0ED2                     u2625:	
  6339  0ED2  1C03               	skipc
  6340  0ED3  2EDB               	goto	L8
  6341  0ED4  0870               	movf	___awmod@divisor,w
  6342  0ED5  02F2               	subwf	___awmod@dividend,f
  6343  0ED6  0871               	movf	___awmod@divisor+1,w
  6344  0ED7  1C03               	skipc
  6345  0ED8  03F3               	decf	___awmod@dividend+1,f
  6346  0ED9  02F3               	subwf	___awmod@dividend+1,f
  6347  0EDA  1003               	clrc
  6348  0EDB                     L8:	
  6349  0EDB  0CF1               	rrf	___awmod@divisor+1,f
  6350  0EDC  0CF0               	rrf	___awmod@divisor,f
  6351  0EDD  0BF4               	decfsz	___awmod@counter,f
  6352  0EDE  2ECC               	goto	l5526
  6353  0EDF                     l5534:	
  6354  0EDF  0875               	movf	___awmod@sign,w
  6355  0EE0  1903               	btfsc	3,2
  6356  0EE1  2EE7               	goto	l5538
  6357  0EE2  09F2               	comf	___awmod@dividend,f
  6358  0EE3  09F3               	comf	___awmod@dividend+1,f
  6359  0EE4  0AF2               	incf	___awmod@dividend,f
  6360  0EE5  1903               	skipnz
  6361  0EE6  0AF3               	incf	___awmod@dividend+1,f
  6362  0EE7                     l5538:	
  6363  0EE7  0873               	movf	___awmod@dividend+1,w
  6364  0EE8  00F1               	movwf	?___awmod+1
  6365  0EE9  0872               	movf	___awmod@dividend,w
  6366  0EEA  00F0               	movwf	?___awmod
  6367  0EEB  0008               	return
  6368  0EEC                     __end_of___awmod:	
  6369  0EEC                     __ptext729:	
  6370 ;; =============== function ___awtoft ends ============
  6371                           
  6372                           
  6373 ;; *************** function ___ftmul *****************
  6374 ;; Defined at:
  6375 ;;		line 52 in file "C:\Program Files (x86)\HI-TECH Software\PICC\9.82\sources\ftmul.c"
  6376 ;; Parameters:    Size  Location     Type
  6377 ;;  f1              3   13[BANK0 ] float 
  6378 ;;  f2              3   16[BANK0 ] float 
  6379 ;; Auto vars:     Size  Location     Type
  6380 ;;  f3_as_produc    3   23[BANK0 ] unsigned um
  6381 ;;  sign            1   27[BANK0 ] unsigned char 
  6382 ;;  cntr            1   26[BANK0 ] unsigned char 
  6383 ;;  exp             1   22[BANK0 ] unsigned char 
  6384 ;; Return value:  Size  Location     Type
  6385 ;;                  3   13[BANK0 ] float 
  6386 ;; Registers used:
  6387 ;;		wreg, status,2, status,0, pclath, cstack
  6388 ;; Tracked objects:
  6389 ;;		On entry : 60/0
  6390 ;;		On exit  : 60/0
  6391 ;;		Unchanged: FFF9F/0
  6392 ;; Data sizes:     COMMON   BANK0   BANK1   BANK3   BANK2
  6393 ;;      Params:         0       6       0       0       0
  6394 ;;      Locals:         0       6       0       0       0
  6395 ;;      Temps:          0       3       0       0       0
  6396 ;;      Totals:         0      15       0       0       0
  6397 ;;Total ram usage:       15 bytes
  6398 ;; Hardware stack levels used:    1
  6399 ;; Hardware stack levels required when called:    1
  6400 ;; This function calls:
  6401 ;;		___ftpack
  6402 ;; This function is called by:
  6403 ;;		_main
  6404 ;;		_fround
  6405 ;;		_scale
  6406 ;;		_sprintf
  6407 ;; This function uses a non-reentrant model
  6408 ;;
  6409  0EEC                     ___ftmul:	
  6410                           
  6411                           ; Regs used in ___ftmul: [wreg+status,2+status,0+pclath+cstack]
  6412  0EEC  082D               	movf	___ftmul@f1,w
  6413  0EED  00B3               	movwf	??___ftmul
  6414  0EEE  082E               	movf	___ftmul@f1+1,w
  6415  0EEF  00B4               	movwf	??___ftmul+1
  6416  0EF0  082F               	movf	___ftmul@f1+2,w
  6417  0EF1  00B5               	movwf	??___ftmul+2
  6418  0EF2  1003               	clrc
  6419  0EF3  0D34               	rlf	??___ftmul+1,w
  6420  0EF4  0D35               	rlf	??___ftmul+2,w
  6421  0EF5  00B6               	movwf	___ftmul@exp
  6422  0EF6  08B6               	movf	___ftmul@exp,f
  6423  0EF7  1D03               	skipz
  6424  0EF8  2EFD               	goto	l5654
  6425  0EF9  01AD               	clrf	?___ftmul
  6426  0EFA  01AE               	clrf	?___ftmul+1
  6427  0EFB  01AF               	clrf	?___ftmul+2
  6428  0EFC  0008               	return
  6429  0EFD                     l5654:	
  6430  0EFD  0830               	movf	___ftmul@f2,w
  6431  0EFE  00B3               	movwf	??___ftmul
  6432  0EFF  0831               	movf	___ftmul@f2+1,w
  6433  0F00  00B4               	movwf	??___ftmul+1
  6434  0F01  0832               	movf	___ftmul@f2+2,w
  6435  0F02  00B5               	movwf	??___ftmul+2
  6436  0F03  1003               	clrc
  6437  0F04  0D34               	rlf	??___ftmul+1,w
  6438  0F05  0D35               	rlf	??___ftmul+2,w
  6439  0F06  00BB               	movwf	___ftmul@sign
  6440  0F07  08BB               	movf	___ftmul@sign,f
  6441  0F08  1D03               	skipz
  6442  0F09  2F0E               	goto	l5660
  6443  0F0A  01AD               	clrf	?___ftmul
  6444  0F0B  01AE               	clrf	?___ftmul+1
  6445  0F0C  01AF               	clrf	?___ftmul+2
  6446  0F0D  0008               	return
  6447  0F0E                     l5660:	
  6448  0F0E  083B               	movf	___ftmul@sign,w
  6449  0F0F  3E7B               	addlw	123
  6450  0F10  07B6               	addwf	___ftmul@exp,f
  6451  0F11  082F               	movf	___ftmul@f1+2,w
  6452  0F12  00BB               	movwf	___ftmul@sign
  6453  0F13  0832               	movf	___ftmul@f2+2,w
  6454  0F14  06BB               	xorwf	___ftmul@sign,f
  6455  0F15  3080               	movlw	128
  6456  0F16  05BB               	andwf	___ftmul@sign,f
  6457  0F17  3007               	movlw	7
  6458  0F18  17AE               	bsf	___ftmul@f1+1,7
  6459  0F19  17B1               	bsf	___ftmul@f2+1,7
  6460  0F1A  01B2               	clrf	___ftmul@f2+2
  6461  0F1B  01B7               	clrf	___ftmul@f3_as_product
  6462  0F1C  01B8               	clrf	___ftmul@f3_as_product+1
  6463  0F1D  01B9               	clrf	___ftmul@f3_as_product+2
  6464  0F1E  00BA               	movwf	___ftmul@cntr
  6465  0F1F                     l5678:	
  6466  0F1F  1C2D               	btfss	___ftmul@f1,0
  6467  0F20  2F29               	goto	l5682
  6468  0F21  0830               	movf	___ftmul@f2,w
  6469  0F22  27D6  120A  158A   	fcall	PL18	;call to abstracted procedure
  6470  0F25  1803               	skipnc
  6471  0F26  0A32               	incf	___ftmul@f2+2,w
  6472  0F27  1D03               	btfss	3,2
  6473  0F28  07B9               	addwf	___ftmul@f3_as_product+2,f
  6474  0F29                     l5682:	
  6475  0F29  1003               	clrc
  6476  0F2A  0CAF               	rrf	___ftmul@f1+2,f
  6477  0F2B  0CAE               	rrf	___ftmul@f1+1,f
  6478  0F2C  0CAD               	rrf	___ftmul@f1,f
  6479  0F2D  1003               	clrc
  6480  0F2E  0DB0               	rlf	___ftmul@f2,f
  6481  0F2F  0DB1               	rlf	___ftmul@f2+1,f
  6482  0F30  0DB2               	rlf	___ftmul@f2+2,f
  6483  0F31  0BBA               	decfsz	___ftmul@cntr,f
  6484  0F32  2F1F               	goto	l5678
  6485  0F33  3009               	movlw	9
  6486  0F34  00BA               	movwf	___ftmul@cntr
  6487  0F35                     l5690:	
  6488  0F35  1C2D               	btfss	___ftmul@f1,0
  6489  0F36  2F3F               	goto	l5694
  6490  0F37  0830               	movf	___ftmul@f2,w
  6491  0F38  27D6  120A  158A   	fcall	PL18	;call to abstracted procedure
  6492  0F3B  1803               	skipnc
  6493  0F3C  0A32               	incf	___ftmul@f2+2,w
  6494  0F3D  1D03               	btfss	3,2
  6495  0F3E  07B9               	addwf	___ftmul@f3_as_product+2,f
  6496  0F3F                     l5694:	
  6497  0F3F  1003               	clrc
  6498  0F40  0CAF               	rrf	___ftmul@f1+2,f
  6499  0F41  0CAE               	rrf	___ftmul@f1+1,f
  6500  0F42  0CAD               	rrf	___ftmul@f1,f
  6501  0F43  1003               	clrc
  6502  0F44  0CB9               	rrf	___ftmul@f3_as_product+2,f
  6503  0F45  0CB8               	rrf	___ftmul@f3_as_product+1,f
  6504  0F46  0CB7               	rrf	___ftmul@f3_as_product,f
  6505  0F47  0BBA               	decfsz	___ftmul@cntr,f
  6506  0F48  2F35               	goto	l5690
  6507  0F49  0837               	movf	___ftmul@f3_as_product,w
  6508  0F4A  00F0               	movwf	?___ftpack
  6509  0F4B  0838               	movf	___ftmul@f3_as_product+1,w
  6510  0F4C  00F1               	movwf	?___ftpack+1
  6511  0F4D  0839               	movf	___ftmul@f3_as_product+2,w
  6512  0F4E  00F2               	movwf	?___ftpack+2
  6513  0F4F  0836               	movf	___ftmul@exp,w
  6514  0F50  00F3               	movwf	?___ftpack+3
  6515  0F51  083B               	movf	___ftmul@sign,w
  6516  0F52  00F4               	movwf	?___ftpack+4
  6517  0F53  2769               	fcall	___ftpack
  6518  0F54  0870               	movf	?___ftpack,w
  6519  0F55  00AD               	movwf	?___ftmul
  6520  0F56  0871               	movf	?___ftpack+1,w
  6521  0F57  00AE               	movwf	?___ftmul+1
  6522  0F58  0872               	movf	?___ftpack+2,w
  6523  0F59  00AF               	movwf	?___ftmul+2
  6524  0F5A  0008               	return
  6525  0F5B                     __end_of___ftmul:	
  6526  0F5B                     __ptext744:	
  6527 ;; =============== function ___wmul ends ============
  6528                           
  6529                           
  6530 ;; *************** function ___bmul *****************
  6531 ;; Defined at:
  6532 ;;		line 3 in file "C:\Program Files (x86)\HI-TECH Software\PICC\9.82\sources\bmul.c"
  6533 ;; Parameters:    Size  Location     Type
  6534 ;;  multiplier      1    wreg     unsigned char 
  6535 ;;  multiplicand    1    9[COMMON] unsigned char 
  6536 ;; Auto vars:     Size  Location     Type
  6537 ;;  multiplier      1   11[COMMON] unsigned char 
  6538 ;;  product         1   10[COMMON] unsigned char 
  6539 ;; Return value:  Size  Location     Type
  6540 ;;                  1    wreg      unsigned char 
  6541 ;; Registers used:
  6542 ;;		wreg, status,2, status,0
  6543 ;; Tracked objects:
  6544 ;;		On entry : 60/0
  6545 ;;		On exit  : 60/0
  6546 ;;		Unchanged: FFF9F/0
  6547 ;; Data sizes:     COMMON   BANK0   BANK1   BANK3   BANK2
  6548 ;;      Params:         1       0       0       0       0
  6549 ;;      Locals:         2       0       0       0       0
  6550 ;;      Temps:          0       0       0       0       0
  6551 ;;      Totals:         3       0       0       0       0
  6552 ;;Total ram usage:        3 bytes
  6553 ;; Hardware stack levels used:    1
  6554 ;; This function calls:
  6555 ;;		Nothing
  6556 ;; This function is called by:
  6557 ;;		_fround
  6558 ;;		_scale
  6559 ;; This function uses a non-reentrant model
  6560 ;;
  6561  0F5B                     ___bmul:	
  6562                           
  6563                           ; Regs used in ___bmul: [wreg+status,2+status,0]
  6564                           ;___bmul@multiplier stored from wreg
  6565  0F5B  00FB               	movwf	___bmul@multiplier
  6566  0F5C  01FA               	clrf	___bmul@product
  6567  0F5D                     l5250:	
  6568  0F5D  0879               	movf	___bmul@multiplicand,w
  6569  0F5E  187B               	btfsc	___bmul@multiplier,0
  6570  0F5F  07FA               	addwf	___bmul@product,f
  6571  0F60  1003               	clrc
  6572  0F61  0DF9               	rlf	___bmul@multiplicand,f
  6573  0F62  1003               	clrc
  6574  0F63  0CFB               	rrf	___bmul@multiplier,f
  6575  0F64  08FB               	movf	___bmul@multiplier,f
  6576  0F65  1D03               	skipz
  6577  0F66  2F5D               	goto	l5250
  6578  0F67  087A               	movf	___bmul@product,w
  6579  0F68  0008               	return
  6580  0F69                     __end_of___bmul:	
  6581  0F69                     __ptext740:	
  6582 ;; =============== function ___fttol ends ============
  6583                           
  6584                           
  6585 ;; *************** function ___ftpack *****************
  6586 ;; Defined at:
  6587 ;;		line 63 in file "C:\Program Files (x86)\HI-TECH Software\PICC\9.82\sources\float.c"
  6588 ;; Parameters:    Size  Location     Type
  6589 ;;  arg             3    0[COMMON] unsigned um
  6590 ;;  exp             1    3[COMMON] unsigned char 
  6591 ;;  sign            1    4[COMMON] unsigned char 
  6592 ;; Auto vars:     Size  Location     Type
  6593 ;;		None
  6594 ;; Return value:  Size  Location     Type
  6595 ;;                  3    0[COMMON] float 
  6596 ;; Registers used:
  6597 ;;		wreg, status,2, status,0
  6598 ;; Tracked objects:
  6599 ;;		On entry : 40/20
  6600 ;;		On exit  : 40/20
  6601 ;;		Unchanged: FFFBF/0
  6602 ;; Data sizes:     COMMON   BANK0   BANK1   BANK3   BANK2
  6603 ;;      Params:         5       0       0       0       0
  6604 ;;      Locals:         0       0       0       0       0
  6605 ;;      Temps:          3       0       0       0       0
  6606 ;;      Totals:         8       0       0       0       0
  6607 ;;Total ram usage:        8 bytes
  6608 ;; Hardware stack levels used:    1
  6609 ;; This function calls:
  6610 ;;		Nothing
  6611 ;; This function is called by:
  6612 ;;		___ftadd
  6613 ;;		___ftmul
  6614 ;;		___awtoft
  6615 ;;		___lltoft
  6616 ;; This function uses a non-reentrant model
  6617 ;;
  6618  0F69                     ___ftpack:	
  6619                           
  6620                           ; Regs used in ___ftpack: [wreg+status,2+status,0]
  6621  0F69  0873               	movf	___ftpack@exp,w
  6622  0F6A  1903               	btfsc	3,2
  6623  0F6B  2F71               	goto	l5326
  6624  0F6C  0872               	movf	___ftpack@arg+2,w
  6625  0F6D  0471               	iorwf	___ftpack@arg+1,w
  6626  0F6E  0470               	iorwf	___ftpack@arg,w
  6627  0F6F  1D03               	skipz
  6628  0F70  2F7A               	goto	l5332
  6629  0F71                     l5326:	
  6630  0F71  01F0               	clrf	?___ftpack
  6631  0F72  01F1               	clrf	?___ftpack+1
  6632  0F73  01F2               	clrf	?___ftpack+2
  6633  0F74  0008               	return
  6634  0F75                     l5330:	
  6635  0F75  0AF3               	incf	___ftpack@exp,f
  6636  0F76  1003               	clrc
  6637  0F77  0CF2               	rrf	___ftpack@arg+2,f
  6638  0F78  0CF1               	rrf	___ftpack@arg+1,f
  6639  0F79  0CF0               	rrf	___ftpack@arg,f
  6640  0F7A                     l5332:	
  6641  0F7A  30FE               	movlw	254
  6642  0F7B  0572               	andwf	___ftpack@arg+2,w
  6643  0F7C  1903               	btfsc	3,2
  6644  0F7D  2F89               	goto	l5336
  6645  0F7E  2F75               	goto	l5330
  6646  0F7F                     l5334:	
  6647  0F7F  0AF3               	incf	___ftpack@exp,f
  6648  0F80  0AF0               	incf	___ftpack@arg,f
  6649  0F81  1903               	skipnz
  6650  0F82  0AF1               	incf	___ftpack@arg+1,f
  6651  0F83  1903               	skipnz
  6652  0F84  0AF2               	incf	___ftpack@arg+2,f
  6653  0F85  1003               	clrc
  6654  0F86  0CF2               	rrf	___ftpack@arg+2,f
  6655  0F87  0CF1               	rrf	___ftpack@arg+1,f
  6656  0F88  0CF0               	rrf	___ftpack@arg,f
  6657  0F89                     l5336:	
  6658  0F89  30FF               	movlw	255
  6659  0F8A  0572               	andwf	___ftpack@arg+2,w
  6660  0F8B  1903               	btfsc	3,2
  6661  0F8C  2F93               	goto	l5340
  6662  0F8D  2F7F               	goto	l5334
  6663  0F8E                     l5338:	
  6664  0F8E  03F3               	decf	___ftpack@exp,f
  6665  0F8F  1003               	clrc
  6666  0F90  0DF0               	rlf	___ftpack@arg,f
  6667  0F91  0DF1               	rlf	___ftpack@arg+1,f
  6668  0F92  0DF2               	rlf	___ftpack@arg+2,f
  6669  0F93                     l5340:	
  6670  0F93  1FF1               	btfss	___ftpack@arg+1,7
  6671  0F94  2F8E               	goto	l5338
  6672  0F95  1C73               	btfss	___ftpack@exp,0
  6673  0F96  13F1               	bcf	___ftpack@arg+1,7
  6674  0F97  1003               	clrc
  6675  0F98  0CF3               	rrf	___ftpack@exp,f
  6676  0F99  0873               	movf	___ftpack@exp,w
  6677  0F9A  00F7               	movwf	??___ftpack+2
  6678  0F9B  01F6               	clrf	??___ftpack+1
  6679  0F9C  01F5               	clrf	??___ftpack
  6680  0F9D  0875               	movf	??___ftpack,w
  6681  0F9E  04F0               	iorwf	___ftpack@arg,f
  6682  0F9F  0876               	movf	??___ftpack+1,w
  6683  0FA0  04F1               	iorwf	___ftpack@arg+1,f
  6684  0FA1  0877               	movf	??___ftpack+2,w
  6685  0FA2  04F2               	iorwf	___ftpack@arg+2,f
  6686  0FA3  0874               	movf	___ftpack@sign,w
  6687  0FA4  1D03               	skipz
  6688  0FA5  17F2               	bsf	___ftpack@arg+2,7
  6689  0FA6  0008               	return
  6690  0FA7                     __end_of___ftpack:	
  6691  0FA7                     PL8:	
  6692  0FA7  082D               	movf	?___ftmul,w
  6693  0FA8  00C3               	movwf	_scale$2943
  6694  0FA9  082E               	movf	?___ftmul+1,w
  6695  0FAA  00C4               	movwf	_scale$2943+1
  6696  0FAB  082F               	movf	?___ftmul+2,w
  6697  0FAC  00C5               	movwf	_scale$2943+2
  6698  0FAD  300A               	movlw	10
  6699  0FAE  00F0               	movwf	?___awmod
  6700  0FAF  01F1               	clrf	?___awmod+1
  6701  0FB0  0846               	movf	scale@scl,w
  6702  0FB1  00F2               	movwf	?___awmod+2
  6703  0FB2  01F3               	clrf	?___awmod+3
  6704  0FB3  0008               	return
  6705  0FB4                     PL9:	
  6706  0FB4  0870               	movf	?___awmod,w
  6707  0FB5  00BF               	movwf	??_scale
  6708  0FB6  0871               	movf	?___awmod+1,w
  6709  0FB7  00C0               	movwf	??_scale+1
  6710  0FB8  083F               	movf	??_scale,w
  6711  0FB9  073F               	addwf	??_scale,w
  6712  0FBA  073F               	addwf	??_scale,w
  6713  0FBB  0008               	return
  6714  0FBC                     PL10:	
  6715  0FBC  0876               	movf	?___awdiv,w
  6716  0FBD  00C1               	movwf	??_scale+2
  6717  0FBE  0877               	movf	?___awdiv+1,w
  6718  0FBF  00C2               	movwf	??_scale+3
  6719  0FC0  0841               	movf	??_scale+2,w
  6720  0FC1  0741               	addwf	??_scale+2,w
  6721  0FC2  0741               	addwf	??_scale+2,w
  6722  0FC3  0008               	return
  6723  0FC4                     PL11:	
  6724  0FC4  082D               	movf	?___ftmul,w
  6725  0FC5  00BC               	movwf	?_scale
  6726  0FC6  082E               	movf	?___ftmul+1,w
  6727  0FC7  00BD               	movwf	?_scale+1
  6728  0FC8  082F               	movf	?___ftmul+2,w
  6729  0FC9  00BE               	movwf	?_scale+2
  6730  0FCA  0008               	return
  6731  0FCB                     PL16:	
  6732  0FCB  00F6               	movwf	?___awdiv
  6733  0FCC  01F7               	clrf	?___awdiv+1
  6734  0FCD  0846               	movf	scale@scl,w
  6735  0FCE  00F2               	movwf	?___awmod+2
  6736  0FCF  01F3               	clrf	?___awmod+3
  6737  0FD0  1BF2               	btfsc	?___awmod+2,7
  6738  0FD1  03F3               	decf	?___awmod+3,f
  6739  0FD2  3064               	movlw	100
  6740  0FD3  00F0               	movwf	?___awmod
  6741  0FD4  01F1               	clrf	?___awmod+1
  6742  0FD5  0008               	return
  6743  0FD6                     PL18:	
  6744  0FD6  07B7               	addwf	___ftmul@f3_as_product,f
  6745  0FD7  0831               	movf	___ftmul@f2+1,w
  6746  0FD8  1103               	clrz
  6747  0FD9  1803               	skipnc
  6748  0FDA  0A31               	incf	___ftmul@f2+1,w
  6749  0FDB  1D03               	btfss	3,2
  6750  0FDC  07B8               	addwf	___ftmul@f3_as_product+1,f
  6751  0FDD  0832               	movf	___ftmul@f2+2,w
  6752  0FDE  1103               	clrz
  6753  0FDF  0008               	return
  6754  0FE0                     PL23:	
  6755  0FE0  0876               	movf	?___awdiv,w
  6756  0FE1  00BF               	movwf	??_scale
  6757  0FE2  0877               	movf	?___awdiv+1,w
  6758  0FE3  00C0               	movwf	??_scale+1
  6759  0FE4  083F               	movf	??_scale,w
  6760  0FE5  073F               	addwf	??_scale,w
  6761  0FE6  073F               	addwf	??_scale,w
  6762  0FE7  0008               	return
  6763  0FE8                     PL24:	
  6764  0FE8  00AF               	movwf	?___ftmul+2
  6765  0FE9  0843               	movf	_scale$2943,w
  6766  0FEA  00B0               	movwf	?___ftmul+3
  6767  0FEB  0844               	movf	_scale$2943+1,w
  6768  0FEC  00B1               	movwf	?___ftmul+4
  6769  0FED  0845               	movf	_scale$2943+2,w
  6770  0FEE  00B2               	movwf	?___ftmul+5
  6771  0FEF  0008               	return
  6772  0FF0                     PL25:	
  6773  0FF0  00AF               	movwf	?___ftmul+2
  6774  0FF1  3064               	movlw	100
  6775  0FF2  00F6               	movwf	?___awdiv
  6776  0FF3  01F7               	clrf	?___awdiv+1
  6777  0FF4  0846               	movf	scale@scl,w
  6778  0FF5  00F8               	movwf	?___awdiv+2
  6779  0FF6  01F9               	clrf	?___awdiv+3
  6780  0FF7  0008               	return
  6781  0FF8                     PL27:	
  6782  0FF8  00AF               	movwf	?___ftmul+2
  6783  0FF9  300A               	movlw	10
  6784  0FFA  00F6               	movwf	?___awdiv
  6785  0FFB  01F7               	clrf	?___awdiv+1
  6786  0FFC  0846               	movf	scale@scl,w
  6787  0FFD  00F8               	movwf	?___awdiv+2
  6788  0FFE  01F9               	clrf	?___awdiv+3
  6789  0FFF  0008               	return
  6790                           
  6791                           	psect	text730
  6792  173E                     __ptext730:	
  6793 ;; =============== function ___ftmul ends ============
  6794                           
  6795                           
  6796 ;; *************** function ___ftadd *****************
  6797 ;; Defined at:
  6798 ;;		line 87 in file "C:\Program Files (x86)\HI-TECH Software\PICC\9.82\sources\ftadd.c"
  6799 ;; Parameters:    Size  Location     Type
  6800 ;;  f1              3   28[BANK0 ] float 
  6801 ;;  f2              3   31[BANK0 ] float 
  6802 ;; Auto vars:     Size  Location     Type
  6803 ;;  exp1            1   39[BANK0 ] unsigned char 
  6804 ;;  exp2            1   38[BANK0 ] unsigned char 
  6805 ;;  sign            1   37[BANK0 ] unsigned char 
  6806 ;; Return value:  Size  Location     Type
  6807 ;;                  3   28[BANK0 ] float 
  6808 ;; Registers used:
  6809 ;;		wreg, status,2, status,0, pclath, cstack
  6810 ;; Tracked objects:
  6811 ;;		On entry : 60/0
  6812 ;;		On exit  : 60/0
  6813 ;;		Unchanged: FFF9F/0
  6814 ;; Data sizes:     COMMON   BANK0   BANK1   BANK3   BANK2
  6815 ;;      Params:         0       6       0       0       0
  6816 ;;      Locals:         0       3       0       0       0
  6817 ;;      Temps:          0       3       0       0       0
  6818 ;;      Totals:         0      12       0       0       0
  6819 ;;Total ram usage:       12 bytes
  6820 ;; Hardware stack levels used:    1
  6821 ;; Hardware stack levels required when called:    1
  6822 ;; This function calls:
  6823 ;;		___ftpack
  6824 ;; This function is called by:
  6825 ;;		_sprintf
  6826 ;;		___ftsub
  6827 ;; This function uses a non-reentrant model
  6828 ;;
  6829  173E                     ___ftadd:	
  6830                           
  6831                           ; Regs used in ___ftadd: [wreg+status,2+status,0+pclath+cstack]
  6832  173E  083C               	movf	___ftadd@f1,w
  6833  173F  00C2               	movwf	??___ftadd
  6834  1740  083D               	movf	___ftadd@f1+1,w
  6835  1741  00C3               	movwf	??___ftadd+1
  6836  1742  083E               	movf	___ftadd@f1+2,w
  6837  1743  00C4               	movwf	??___ftadd+2
  6838  1744  1003               	clrc
  6839  1745  0D43               	rlf	??___ftadd+1,w
  6840  1746  0D44               	rlf	??___ftadd+2,w
  6841  1747  00C7               	movwf	___ftadd@exp1
  6842  1748  083F               	movf	___ftadd@f2,w
  6843  1749  00C2               	movwf	??___ftadd
  6844  174A  0840               	movf	___ftadd@f2+1,w
  6845  174B  00C3               	movwf	??___ftadd+1
  6846  174C  0841               	movf	___ftadd@f2+2,w
  6847  174D  00C4               	movwf	??___ftadd+2
  6848  174E  1003               	clrc
  6849  174F  0D43               	rlf	??___ftadd+1,w
  6850  1750  0D44               	rlf	??___ftadd+2,w
  6851  1751  00C6               	movwf	___ftadd@exp2
  6852  1752  0847               	movf	___ftadd@exp1,w
  6853  1753  1903               	btfsc	3,2
  6854  1754  2F61               	goto	l5578
  6855  1755  0846               	movf	___ftadd@exp2,w
  6856  1756  0247               	subwf	___ftadd@exp1,w
  6857  1757  0846               	movf	___ftadd@exp2,w
  6858  1758  1803               	skipnc
  6859  1759  2F69               	goto	L6
  6860  175A  00C2               	movwf	??___ftadd
  6861  175B  0847               	movf	___ftadd@exp1,w
  6862  175C  02C2               	subwf	??___ftadd,f
  6863  175D  3019               	movlw	25
  6864  175E  0242               	subwf	??___ftadd,w
  6865  175F  1C03               	skipc
  6866  1760  2F68               	goto	l5582
  6867  1761                     l5578:	
  6868  1761  083F               	movf	___ftadd@f2,w
  6869  1762  00BC               	movwf	?___ftadd
  6870  1763  0840               	movf	___ftadd@f2+1,w
  6871  1764  00BD               	movwf	?___ftadd+1
  6872  1765  0841               	movf	___ftadd@f2+2,w
  6873  1766  00BE               	movwf	?___ftadd+2
  6874  1767  0008               	return
  6875  1768                     l5582:	
  6876  1768  0846               	movf	___ftadd@exp2,w
  6877  1769                     L6:	
  6878  1769  1903               	btfsc	3,2
  6879  176A  0008               	return
  6880  176B  0847               	movf	___ftadd@exp1,w
  6881  176C  0246               	subwf	___ftadd@exp2,w
  6882  176D  1803               	skipnc
  6883  176E  2F77               	goto	l5588
  6884  176F  0847               	movf	___ftadd@exp1,w
  6885  1770  00C2               	movwf	??___ftadd
  6886  1771  0846               	movf	___ftadd@exp2,w
  6887  1772  02C2               	subwf	??___ftadd,f
  6888  1773  3019               	movlw	25
  6889  1774  0242               	subwf	??___ftadd,w
  6890  1775  1803               	btfsc	3,0
  6891  1776  0008               	return
  6892  1777                     l5588:	
  6893  1777  3006               	movlw	6
  6894  1778  00C5               	movwf	___ftadd@sign
  6895  1779  1BBE               	btfsc	___ftadd@f1+2,7
  6896  177A  17C5               	bsf	___ftadd@sign,7
  6897  177B  1BC1               	btfsc	___ftadd@f2+2,7
  6898  177C  1745               	bsf	___ftadd@sign,6
  6899  177D  17BD               	bsf	___ftadd@f1+1,7
  6900  177E  01BE               	clrf	___ftadd@f1+2
  6901  177F  17C0               	bsf	___ftadd@f2+1,7
  6902  1780  01C1               	clrf	___ftadd@f2+2
  6903  1781  0846               	movf	___ftadd@exp2,w
  6904  1782  0247               	subwf	___ftadd@exp1,w
  6905  1783  1803               	skipnc
  6906  1784  2F9E               	goto	l5610
  6907  1785                     l5600:	
  6908  1785  1003               	clrc
  6909  1786  0DBF               	rlf	___ftadd@f2,f
  6910  1787  0DC0               	rlf	___ftadd@f2+1,f
  6911  1788  0DC1               	rlf	___ftadd@f2+2,f
  6912  1789  03C6               	decf	___ftadd@exp2,f
  6913  178A  0846               	movf	___ftadd@exp2,w
  6914  178B  0647               	xorwf	___ftadd@exp1,w
  6915  178C  1903               	skipnz
  6916  178D  2F99               	goto	l5608
  6917  178E  03C5               	decf	___ftadd@sign,f
  6918  178F  0845               	movf	___ftadd@sign,w
  6919  1790  3907               	andlw	7
  6920  1791  1903               	btfsc	3,2
  6921  1792  2F99               	goto	l5608
  6922  1793  2F85               	goto	l5600
  6923  1794                     l5606:	
  6924  1794  1003               	clrc
  6925  1795  0CBE               	rrf	___ftadd@f1+2,f
  6926  1796  0CBD               	rrf	___ftadd@f1+1,f
  6927  1797  0CBC               	rrf	___ftadd@f1,f
  6928  1798  0AC7               	incf	___ftadd@exp1,f
  6929  1799                     l5608:	
  6930  1799  0847               	movf	___ftadd@exp1,w
  6931  179A  0646               	xorwf	___ftadd@exp2,w
  6932  179B  1903               	btfsc	3,2
  6933  179C  2FBA               	goto	l2373
  6934  179D  2F94               	goto	l5606
  6935  179E                     l5610:	
  6936  179E  0847               	movf	___ftadd@exp1,w
  6937  179F  0246               	subwf	___ftadd@exp2,w
  6938  17A0  1803               	skipnc
  6939  17A1  2FBA               	goto	l2373
  6940  17A2                     l5612:	
  6941  17A2  1003               	clrc
  6942  17A3  0DBC               	rlf	___ftadd@f1,f
  6943  17A4  0DBD               	rlf	___ftadd@f1+1,f
  6944  17A5  0DBE               	rlf	___ftadd@f1+2,f
  6945  17A6  03C7               	decf	___ftadd@exp1,f
  6946  17A7  0846               	movf	___ftadd@exp2,w
  6947  17A8  0647               	xorwf	___ftadd@exp1,w
  6948  17A9  1903               	skipnz
  6949  17AA  2FB6               	goto	l5620
  6950  17AB  03C5               	decf	___ftadd@sign,f
  6951  17AC  0845               	movf	___ftadd@sign,w
  6952  17AD  3907               	andlw	7
  6953  17AE  1903               	btfsc	3,2
  6954  17AF  2FB6               	goto	l5620
  6955  17B0  2FA2               	goto	l5612
  6956  17B1                     l5618:	
  6957  17B1  1003               	clrc
  6958  17B2  0CC1               	rrf	___ftadd@f2+2,f
  6959  17B3  0CC0               	rrf	___ftadd@f2+1,f
  6960  17B4  0CBF               	rrf	___ftadd@f2,f
  6961  17B5  0AC6               	incf	___ftadd@exp2,f
  6962  17B6                     l5620:	
  6963  17B6  0847               	movf	___ftadd@exp1,w
  6964  17B7  0646               	xorwf	___ftadd@exp2,w
  6965  17B8  1D03               	skipz
  6966  17B9  2FB1               	goto	l5618
  6967  17BA                     l2373:	
  6968  17BA  1FC5               	btfss	___ftadd@sign,7
  6969  17BB  2FC5               	goto	l5626
  6970  17BC  30FF               	movlw	255
  6971  17BD  06BC               	xorwf	___ftadd@f1,f
  6972  17BE  06BD               	xorwf	___ftadd@f1+1,f
  6973  17BF  06BE               	xorwf	___ftadd@f1+2,f
  6974  17C0  0ABC               	incf	___ftadd@f1,f
  6975  17C1  1903               	skipnz
  6976  17C2  0ABD               	incf	___ftadd@f1+1,f
  6977  17C3  1903               	skipnz
  6978  17C4  0ABE               	incf	___ftadd@f1+2,f
  6979  17C5                     l5626:	
  6980  17C5  1F45               	btfss	___ftadd@sign,6
  6981  17C6  2FD0               	goto	l5632
  6982  17C7  30FF               	movlw	255
  6983  17C8  06BF               	xorwf	___ftadd@f2,f
  6984  17C9  06C0               	xorwf	___ftadd@f2+1,f
  6985  17CA  06C1               	xorwf	___ftadd@f2+2,f
  6986  17CB  0ABF               	incf	___ftadd@f2,f
  6987  17CC  1903               	skipnz
  6988  17CD  0AC0               	incf	___ftadd@f2+1,f
  6989  17CE  1903               	skipnz
  6990  17CF  0AC1               	incf	___ftadd@f2+2,f
  6991  17D0                     l5632:	
  6992  17D0  01C5               	clrf	___ftadd@sign
  6993  17D1  083C               	movf	___ftadd@f1,w
  6994  17D2  07BF               	addwf	___ftadd@f2,f
  6995  17D3  083D               	movf	___ftadd@f1+1,w
  6996  17D4  1103               	clrz
  6997  17D5  1803               	skipnc
  6998  17D6  0A3D               	incf	___ftadd@f1+1,w
  6999  17D7  1D03               	btfss	3,2
  7000  17D8  07C0               	addwf	___ftadd@f2+1,f
  7001  17D9  083E               	movf	___ftadd@f1+2,w
  7002  17DA  1103               	clrz
  7003  17DB  1803               	skipnc
  7004  17DC  0A3E               	incf	___ftadd@f1+2,w
  7005  17DD  1D03               	btfss	3,2
  7006  17DE  07C1               	addwf	___ftadd@f2+2,f
  7007  17DF  1FC1               	btfss	___ftadd@f2+2,7
  7008  17E0  2FEC               	goto	l5644
  7009  17E1  30FF               	movlw	255
  7010  17E2  06BF               	xorwf	___ftadd@f2,f
  7011  17E3  06C0               	xorwf	___ftadd@f2+1,f
  7012  17E4  06C1               	xorwf	___ftadd@f2+2,f
  7013  17E5  0ABF               	incf	___ftadd@f2,f
  7014  17E6  1903               	skipnz
  7015  17E7  0AC0               	incf	___ftadd@f2+1,f
  7016  17E8  1903               	skipnz
  7017  17E9  0AC1               	incf	___ftadd@f2+2,f
  7018  17EA  01C5               	clrf	___ftadd@sign
  7019  17EB  0AC5               	incf	___ftadd@sign,f
  7020  17EC                     l5644:	
  7021  17EC  083F               	movf	___ftadd@f2,w
  7022  17ED  00F0               	movwf	?___ftpack
  7023  17EE  0840               	movf	___ftadd@f2+1,w
  7024  17EF  00F1               	movwf	?___ftpack+1
  7025  17F0  0841               	movf	___ftadd@f2+2,w
  7026  17F1  00F2               	movwf	?___ftpack+2
  7027  17F2  0847               	movf	___ftadd@exp1,w
  7028  17F3  00F3               	movwf	?___ftpack+3
  7029  17F4  0845               	movf	___ftadd@sign,w
  7030  17F5  00F4               	movwf	?___ftpack+4
  7031  17F6  120A  158A  2769   	fcall	___ftpack
  7032  17F9  0870               	movf	?___ftpack,w
  7033  17FA  00BC               	movwf	?___ftadd
  7034  17FB  0871               	movf	?___ftpack+1,w
  7035  17FC  00BD               	movwf	?___ftadd+1
  7036  17FD  0872               	movf	?___ftpack+2,w
  7037  17FE  00BE               	movwf	?___ftadd+2
  7038  17FF  0008               	return
  7039  1800                     __end_of___ftadd:	
  7040                           
  7041                           	psect	text745
  7042  167C                     __ptext745:	
  7043 ;; =============== function ___bmul ends ============
  7044                           
  7045                           
  7046 ;; *************** function __div_to_l_ *****************
  7047 ;; Defined at:
  7048 ;;		line 61 in file "C:\Program Files (x86)\HI-TECH Software\PICC\9.82\sources\fldivl.c"
  7049 ;; Parameters:    Size  Location     Type
  7050 ;;  f1              3    0[COMMON] unsigned char 
  7051 ;;  f2              3    3[COMMON] unsigned char 
  7052 ;; Auto vars:     Size  Location     Type
  7053 ;;  quot            4    0[BANK0 ] unsigned long 
  7054 ;;  exp1            1    5[BANK0 ] unsigned char 
  7055 ;;  cntr            1    4[BANK0 ] unsigned char 
  7056 ;; Return value:  Size  Location     Type
  7057 ;;                  4    0[COMMON] unsigned long 
  7058 ;; Registers used:
  7059 ;;		wreg, fsr0l, fsr0h, status,2, status,0
  7060 ;; Tracked objects:
  7061 ;;		On entry : 0/0
  7062 ;;		On exit  : 60/0
  7063 ;;		Unchanged: FFF9F/0
  7064 ;; Data sizes:     COMMON   BANK0   BANK1   BANK3   BANK2
  7065 ;;      Params:         6       0       0       0       0
  7066 ;;      Locals:         0       6       0       0       0
  7067 ;;      Temps:          8       0       0       0       0
  7068 ;;      Totals:        14       6       0       0       0
  7069 ;;Total ram usage:       20 bytes
  7070 ;; Hardware stack levels used:    1
  7071 ;; This function calls:
  7072 ;;		Nothing
  7073 ;; This function is called by:
  7074 ;;		_sprintf
  7075 ;; This function uses a non-reentrant model
  7076 ;;
  7077  167C                     __div_to_l_:	
  7078                           
  7079                           ; Regs used in __div_to_l_: [wreg-fsr0h+status,2+status,0]
  7080  167C  3070               	movlw	low __div_to_l_@f1
  7081  167D  2731  160A  118A   	fcall	PL2	;call to abstracted procedure
  7082  1680  1003               	clrc
  7083  1681  0D78               	rlf	??__div_to_l_+2,w
  7084  1682  0D79               	rlf	??__div_to_l_+3,w
  7085  1683  1283               	bcf	3,5	;RP0=0, select bank0
  7086  1684  1303               	bcf	3,6	;RP1=0, select bank0
  7087  1685  00A5               	movwf	__div_to_l_@exp1
  7088  1686  08A5               	movf	__div_to_l_@exp1,f
  7089  1687  1D03               	skipz
  7090  1688  2E8E               	goto	l5206
  7091  1689                     l5204:	
  7092  1689  01F0               	clrf	?__div_to_l_
  7093  168A  01F1               	clrf	?__div_to_l_+1
  7094  168B  01F2               	clrf	?__div_to_l_+2
  7095  168C  01F3               	clrf	?__div_to_l_+3
  7096  168D  0008               	return
  7097  168E                     l5206:	
  7098  168E  3073               	movlw	low __div_to_l_@f2
  7099  168F  2731  160A  118A   	fcall	PL2	;call to abstracted procedure
  7100  1692  1003               	clrc
  7101  1693  0D78               	rlf	??__div_to_l_+2,w
  7102  1694  0D79               	rlf	??__div_to_l_+3,w
  7103  1695  00A4               	movwf	__div_to_l_@cntr
  7104  1696  08A4               	movf	__div_to_l_@cntr,f
  7105  1697  1903               	btfsc	3,2
  7106  1698  2E89               	goto	l5204
  7107  1699  3070               	movlw	low __div_to_l_@f1
  7108  169A  0084               	movwf	4
  7109  169B  3080               	movlw	128
  7110  169C  0A84               	incf	4,f
  7111  169D  0A84               	incf	4,f
  7112  169E  0480               	iorwf	0,f
  7113  169F  3070               	movlw	low __div_to_l_@f1
  7114  16A0  0A84               	incf	4,f
  7115  16A1  0084               	movwf	4
  7116  16A2  3073               	movlw	low __div_to_l_@f2
  7117  16A3  0A84               	incf	4,f
  7118  16A4  0A84               	incf	4,f
  7119  16A5  0A84               	incf	4,f
  7120  16A6  0180               	clrf	0
  7121  16A7  0084               	movwf	4
  7122  16A8  3080               	movlw	128
  7123  16A9  0A84               	incf	4,f
  7124  16AA  0A84               	incf	4,f
  7125  16AB  0480               	iorwf	0,f
  7126  16AC  3073               	movlw	low __div_to_l_@f2
  7127  16AD  0A84               	incf	4,f
  7128  16AE  0084               	movwf	4
  7129  16AF  307F               	movlw	127
  7130  16B0  0A84               	incf	4,f
  7131  16B1  0A84               	incf	4,f
  7132  16B2  0A84               	incf	4,f
  7133  16B3  0180               	clrf	0
  7134  16B4  01A0               	clrf	__div_to_l_@quot
  7135  16B5  01A1               	clrf	__div_to_l_@quot+1
  7136  16B6  01A2               	clrf	__div_to_l_@quot+2
  7137  16B7  01A3               	clrf	__div_to_l_@quot+3
  7138  16B8  02A5               	subwf	__div_to_l_@exp1,f
  7139  16B9  30A0               	movlw	160
  7140  16BA  0724               	addwf	__div_to_l_@cntr,w
  7141  16BB  00F6               	movwf	??__div_to_l_
  7142  16BC  02A5               	subwf	__div_to_l_@exp1,f
  7143  16BD  3020               	movlw	32
  7144  16BE  00A4               	movwf	__div_to_l_@cntr
  7145  16BF                     l5220:	
  7146  16BF  3073               	movlw	low __div_to_l_@f2
  7147  16C0  1003               	clrc
  7148  16C1  0DA0               	rlf	__div_to_l_@quot,f
  7149  16C2  0DA1               	rlf	__div_to_l_@quot+1,f
  7150  16C3  0DA2               	rlf	__div_to_l_@quot+2,f
  7151  16C4  0DA3               	rlf	__div_to_l_@quot+3,f
  7152  16C5  2731  160A  118A   	fcall	PL2	;call to abstracted procedure
  7153  16C8  3070               	movlw	low __div_to_l_@f1
  7154  16C9  0084               	movwf	4
  7155  16CA  0800               	movf	0,w
  7156  16CB  00FA               	movwf	??__div_to_l_+4
  7157  16CC  0A84               	incf	4,f
  7158  16CD  0800               	movf	0,w
  7159  16CE  00FB               	movwf	??__div_to_l_+5
  7160  16CF  0A84               	incf	4,f
  7161  16D0  0800               	movf	0,w
  7162  16D1  00FC               	movwf	??__div_to_l_+6
  7163  16D2  0A84               	incf	4,f
  7164  16D3  0800               	movf	0,w
  7165  16D4  00FD               	movwf	??__div_to_l_+7
  7166  16D5  0879               	movf	??__div_to_l_+3,w
  7167  16D6  027D               	subwf	??__div_to_l_+7,w
  7168  16D7  1D03               	skipz
  7169  16D8  2EE3               	goto	u2065
  7170  16D9  0878               	movf	??__div_to_l_+2,w
  7171  16DA  027C               	subwf	??__div_to_l_+6,w
  7172  16DB  1D03               	skipz
  7173  16DC  2EE3               	goto	u2065
  7174  16DD  0877               	movf	??__div_to_l_+1,w
  7175  16DE  027B               	subwf	??__div_to_l_+5,w
  7176  16DF  1D03               	skipz
  7177  16E0  2EE3               	goto	u2065
  7178  16E1  0876               	movf	??__div_to_l_,w
  7179  16E2  027A               	subwf	??__div_to_l_+4,w
  7180  16E3                     u2065:	
  7181  16E3  1C03               	skipc
  7182  16E4  2EFF               	goto	l2602
  7183  16E5  3073               	movlw	low __div_to_l_@f2
  7184  16E6  2731  160A  118A   	fcall	PL2	;call to abstracted procedure
  7185  16E9  3070               	movlw	low __div_to_l_@f1
  7186  16EA  0084               	movwf	4
  7187  16EB  0876               	movf	??__div_to_l_,w
  7188  16EC  0280               	subwf	0,f
  7189  16ED  0A84               	incf	4,f
  7190  16EE  0877               	movf	??__div_to_l_+1,w
  7191  16EF  1C03               	skipc
  7192  16F0  0F77               	incfsz	??__div_to_l_+1,w
  7193  16F1  0280               	subwf	0,f
  7194  16F2  0A84               	incf	4,f
  7195  16F3  0878               	movf	??__div_to_l_+2,w
  7196  16F4  1C03               	skipc
  7197  16F5  0F78               	incfsz	??__div_to_l_+2,w
  7198  16F6  0280               	subwf	0,f
  7199  16F7  0A84               	incf	4,f
  7200  16F8  0879               	movf	??__div_to_l_+3,w
  7201  16F9  1C03               	skipc
  7202  16FA  0A79               	incf	??__div_to_l_+3,w
  7203  16FB  0280               	subwf	0,f
  7204  16FC  3003               	movlw	3
  7205  16FD  0284               	subwf	4,f
  7206  16FE  1420               	bsf	__div_to_l_@quot,0
  7207  16FF                     l2602:	
  7208  16FF  3070               	movlw	low __div_to_l_@f1
  7209  1700  0084               	movwf	4
  7210  1701  1003               	clrc
  7211  1702  0D80               	rlf	0,f
  7212  1703  0A84               	incf	4,f
  7213  1704  0D80               	rlf	0,f
  7214  1705  0A84               	incf	4,f
  7215  1706  0D80               	rlf	0,f
  7216  1707  0A84               	incf	4,f
  7217  1708  0D80               	rlf	0,f
  7218  1709  0BA4               	decfsz	__div_to_l_@cntr,f
  7219  170A  2EBF               	goto	l5220
  7220  170B  1FA5               	btfss	__div_to_l_@exp1,7
  7221  170C  2F1A               	goto	l5238
  7222  170D  0825               	movf	__div_to_l_@exp1,w
  7223  170E  3A80               	xorlw	128
  7224  170F  3E9F               	addlw	159
  7225  1710  1C03               	btfss	3,0
  7226  1711  2E89               	goto	l5204
  7227  1712                     l5234:	
  7228  1712  1003               	clrc
  7229  1713  0CA3               	rrf	__div_to_l_@quot+3,f
  7230  1714  0CA2               	rrf	__div_to_l_@quot+2,f
  7231  1715  0CA1               	rrf	__div_to_l_@quot+1,f
  7232  1716  0CA0               	rrf	__div_to_l_@quot,f
  7233  1717  0FA5               	incfsz	__div_to_l_@exp1,f
  7234  1718  2F12               	goto	l5234
  7235  1719  2F28               	goto	l5244
  7236  171A                     l5238:	
  7237  171A  3020               	movlw	32
  7238  171B  0225               	subwf	__div_to_l_@exp1,w
  7239  171C  1803               	btfsc	3,0
  7240  171D  2E89               	goto	l5204
  7241  171E                     l2610:	
  7242  171E  08A5               	movf	__div_to_l_@exp1,f
  7243  171F  1903               	btfsc	3,2
  7244  1720  2F28               	goto	l5244
  7245  1721  1003               	clrc
  7246  1722  0DA0               	rlf	__div_to_l_@quot,f
  7247  1723  0DA1               	rlf	__div_to_l_@quot+1,f
  7248  1724  0DA2               	rlf	__div_to_l_@quot+2,f
  7249  1725  0DA3               	rlf	__div_to_l_@quot+3,f
  7250  1726  03A5               	decf	__div_to_l_@exp1,f
  7251  1727  2F1E               	goto	l2610
  7252  1728                     l5244:	
  7253  1728  0823               	movf	__div_to_l_@quot+3,w
  7254  1729  00F3               	movwf	?__div_to_l_+3
  7255  172A  0822               	movf	__div_to_l_@quot+2,w
  7256  172B  00F2               	movwf	?__div_to_l_+2
  7257  172C  0821               	movf	__div_to_l_@quot+1,w
  7258  172D  00F1               	movwf	?__div_to_l_+1
  7259  172E  0820               	movf	__div_to_l_@quot,w
  7260  172F  00F0               	movwf	?__div_to_l_
  7261  1730  0008               	return
  7262  1731                     __end_of__div_to_l_:	
  7263  1731                     PL2:	
  7264  1731  0084               	movwf	4
  7265  1732  0800               	movf	0,w
  7266  1733  00F6               	movwf	??__div_to_l_
  7267  1734  0A84               	incf	4,f
  7268  1735  0800               	movf	0,w
  7269  1736  00F7               	movwf	??__div_to_l_+1
  7270  1737  0A84               	incf	4,f
  7271  1738  0800               	movf	0,w
  7272  1739  00F8               	movwf	??__div_to_l_+2
  7273  173A  0A84               	incf	4,f
  7274  173B  0800               	movf	0,w
  7275  173C  00F9               	movwf	??__div_to_l_+3
  7276  173D  0008               	return
  7277                           
  7278                           	psect	text746
  7279  1546                     __ptext746:	
  7280 ;; =============== function __div_to_l_ ends ============
  7281                           
  7282                           
  7283 ;; *************** function __tdiv_to_l_ *****************
  7284 ;; Defined at:
  7285 ;;		line 61 in file "C:\Program Files (x86)\HI-TECH Software\PICC\9.82\sources\ftdivl.c"
  7286 ;; Parameters:    Size  Location     Type
  7287 ;;  f1              3    0[COMMON] float 
  7288 ;;  f2              3    3[COMMON] float 
  7289 ;; Auto vars:     Size  Location     Type
  7290 ;;  quot            4    0[BANK0 ] unsigned long 
  7291 ;;  exp1            1    5[BANK0 ] unsigned char 
  7292 ;;  cntr            1    4[BANK0 ] unsigned char 
  7293 ;; Return value:  Size  Location     Type
  7294 ;;                  4    0[COMMON] unsigned long 
  7295 ;; Registers used:
  7296 ;;		wreg, status,2, status,0
  7297 ;; Tracked objects:
  7298 ;;		On entry : 60/20
  7299 ;;		On exit  : 60/0
  7300 ;;		Unchanged: FFF9F/0
  7301 ;; Data sizes:     COMMON   BANK0   BANK1   BANK3   BANK2
  7302 ;;      Params:         6       0       0       0       0
  7303 ;;      Locals:         0       6       0       0       0
  7304 ;;      Temps:          3       0       0       0       0
  7305 ;;      Totals:         9       6       0       0       0
  7306 ;;Total ram usage:       15 bytes
  7307 ;; Hardware stack levels used:    1
  7308 ;; This function calls:
  7309 ;;		Nothing
  7310 ;; This function is called by:
  7311 ;;		_sprintf
  7312 ;; This function uses a non-reentrant model
  7313 ;;
  7314  1546                     __tdiv_to_l_:	
  7315                           
  7316                           ; Regs used in __tdiv_to_l_: [wreg+status,2+status,0]
  7317  1546  0870               	movf	__tdiv_to_l_@f1,w
  7318  1547  00F6               	movwf	??__tdiv_to_l_
  7319  1548  0871               	movf	__tdiv_to_l_@f1+1,w
  7320  1549  00F7               	movwf	??__tdiv_to_l_+1
  7321  154A  0872               	movf	__tdiv_to_l_@f1+2,w
  7322  154B  00F8               	movwf	??__tdiv_to_l_+2
  7323  154C  1003               	clrc
  7324  154D  0D77               	rlf	??__tdiv_to_l_+1,w
  7325  154E  0D78               	rlf	??__tdiv_to_l_+2,w
  7326  154F  1283               	bcf	3,5	;RP0=0, select bank0
  7327  1550  00A5               	movwf	__tdiv_to_l_@exp1
  7328  1551  08A5               	movf	__tdiv_to_l_@exp1,f
  7329  1552  1D03               	skipz
  7330  1553  2D59               	goto	l5158
  7331  1554                     l5156:	
  7332  1554  01F0               	clrf	?__tdiv_to_l_
  7333  1555  01F1               	clrf	?__tdiv_to_l_+1
  7334  1556  01F2               	clrf	?__tdiv_to_l_+2
  7335  1557  01F3               	clrf	?__tdiv_to_l_+3
  7336  1558  0008               	return
  7337  1559                     l5158:	
  7338  1559  0873               	movf	__tdiv_to_l_@f2,w
  7339  155A  00F6               	movwf	??__tdiv_to_l_
  7340  155B  0874               	movf	__tdiv_to_l_@f2+1,w
  7341  155C  00F7               	movwf	??__tdiv_to_l_+1
  7342  155D  0875               	movf	__tdiv_to_l_@f2+2,w
  7343  155E  00F8               	movwf	??__tdiv_to_l_+2
  7344  155F  1003               	clrc
  7345  1560  0D77               	rlf	??__tdiv_to_l_+1,w
  7346  1561  0D78               	rlf	??__tdiv_to_l_+2,w
  7347  1562  00A4               	movwf	__tdiv_to_l_@cntr
  7348  1563  08A4               	movf	__tdiv_to_l_@cntr,f
  7349  1564  1903               	btfsc	3,2
  7350  1565  2D54               	goto	l5156
  7351  1566  307F               	movlw	127
  7352  1567  17F1               	bsf	__tdiv_to_l_@f1+1,7
  7353  1568  01F2               	clrf	__tdiv_to_l_@f1+2
  7354  1569  17F4               	bsf	__tdiv_to_l_@f2+1,7
  7355  156A  01F5               	clrf	__tdiv_to_l_@f2+2
  7356  156B  01A0               	clrf	__tdiv_to_l_@quot
  7357  156C  01A1               	clrf	__tdiv_to_l_@quot+1
  7358  156D  01A2               	clrf	__tdiv_to_l_@quot+2
  7359  156E  01A3               	clrf	__tdiv_to_l_@quot+3
  7360  156F  02A5               	subwf	__tdiv_to_l_@exp1,f
  7361  1570  3098               	movlw	152
  7362  1571  0724               	addwf	__tdiv_to_l_@cntr,w
  7363  1572  00F6               	movwf	??__tdiv_to_l_
  7364  1573  02A5               	subwf	__tdiv_to_l_@exp1,f
  7365  1574  3018               	movlw	24
  7366  1575  00A4               	movwf	__tdiv_to_l_@cntr
  7367  1576                     l5172:	
  7368  1576  1003               	clrc
  7369  1577  0DA0               	rlf	__tdiv_to_l_@quot,f
  7370  1578  0DA1               	rlf	__tdiv_to_l_@quot+1,f
  7371  1579  0DA2               	rlf	__tdiv_to_l_@quot+2,f
  7372  157A  0DA3               	rlf	__tdiv_to_l_@quot+3,f
  7373  157B  0875               	movf	__tdiv_to_l_@f2+2,w
  7374  157C  0272               	subwf	__tdiv_to_l_@f1+2,w
  7375  157D  1D03               	skipz
  7376  157E  2D85               	goto	u1975
  7377  157F  0874               	movf	__tdiv_to_l_@f2+1,w
  7378  1580  0271               	subwf	__tdiv_to_l_@f1+1,w
  7379  1581  1D03               	skipz
  7380  1582  2D85               	goto	u1975
  7381  1583  0873               	movf	__tdiv_to_l_@f2,w
  7382  1584  0270               	subwf	__tdiv_to_l_@f1,w
  7383  1585                     u1975:	
  7384  1585  1C03               	skipc
  7385  1586  2D93               	goto	L18
  7386  1587  0873               	movf	__tdiv_to_l_@f2,w
  7387  1588  02F0               	subwf	__tdiv_to_l_@f1,f
  7388  1589  0874               	movf	__tdiv_to_l_@f2+1,w
  7389  158A  1C03               	skipc
  7390  158B  0F74               	incfsz	__tdiv_to_l_@f2+1,w
  7391  158C  02F1               	subwf	__tdiv_to_l_@f1+1,f
  7392  158D  0875               	movf	__tdiv_to_l_@f2+2,w
  7393  158E  1C03               	skipc
  7394  158F  0A75               	incf	__tdiv_to_l_@f2+2,w
  7395  1590  02F2               	subwf	__tdiv_to_l_@f1+2,f
  7396  1591  1420               	bsf	__tdiv_to_l_@quot,0
  7397  1592  1003               	clrc
  7398  1593                     L18:	
  7399  1593  0DF0               	rlf	__tdiv_to_l_@f1,f
  7400  1594  0DF1               	rlf	__tdiv_to_l_@f1+1,f
  7401  1595  0DF2               	rlf	__tdiv_to_l_@f1+2,f
  7402  1596  0BA4               	decfsz	__tdiv_to_l_@cntr,f
  7403  1597  2D76               	goto	l5172
  7404  1598  1FA5               	btfss	__tdiv_to_l_@exp1,7
  7405  1599  2DA7               	goto	l5192
  7406  159A  0825               	movf	__tdiv_to_l_@exp1,w
  7407  159B  3A80               	xorlw	128
  7408  159C  3E97               	addlw	151
  7409  159D  1C03               	btfss	3,0
  7410  159E  2D54               	goto	l5156
  7411  159F                     l5188:	
  7412  159F  1003               	clrc
  7413  15A0  0CA3               	rrf	__tdiv_to_l_@quot+3,f
  7414  15A1  0CA2               	rrf	__tdiv_to_l_@quot+2,f
  7415  15A2  0CA1               	rrf	__tdiv_to_l_@quot+1,f
  7416  15A3  0CA0               	rrf	__tdiv_to_l_@quot,f
  7417  15A4  0FA5               	incfsz	__tdiv_to_l_@exp1,f
  7418  15A5  2D9F               	goto	l5188
  7419  15A6  2DB5               	goto	l5198
  7420  15A7                     l5192:	
  7421  15A7  3018               	movlw	24
  7422  15A8  0225               	subwf	__tdiv_to_l_@exp1,w
  7423  15A9  1803               	btfsc	3,0
  7424  15AA  2D54               	goto	l5156
  7425  15AB                     l2567:	
  7426  15AB  08A5               	movf	__tdiv_to_l_@exp1,f
  7427  15AC  1903               	btfsc	3,2
  7428  15AD  2DB5               	goto	l5198
  7429  15AE  1003               	clrc
  7430  15AF  0DA0               	rlf	__tdiv_to_l_@quot,f
  7431  15B0  0DA1               	rlf	__tdiv_to_l_@quot+1,f
  7432  15B1  0DA2               	rlf	__tdiv_to_l_@quot+2,f
  7433  15B2  0DA3               	rlf	__tdiv_to_l_@quot+3,f
  7434  15B3  03A5               	decf	__tdiv_to_l_@exp1,f
  7435  15B4  2DAB               	goto	l2567
  7436  15B5                     l5198:	
  7437  15B5  0823               	movf	__tdiv_to_l_@quot+3,w
  7438  15B6  00F3               	movwf	?__tdiv_to_l_+3
  7439  15B7  0822               	movf	__tdiv_to_l_@quot+2,w
  7440  15B8  00F2               	movwf	?__tdiv_to_l_+2
  7441  15B9  0821               	movf	__tdiv_to_l_@quot+1,w
  7442  15BA  00F1               	movwf	?__tdiv_to_l_+1
  7443  15BB  0820               	movf	__tdiv_to_l_@quot,w
  7444  15BC  00F0               	movwf	?__tdiv_to_l_
  7445  15BD  0008               	return
  7446  15BE                     __end_of__tdiv_to_l_:	
  7447                           
  7448                           	psect	text748
  7449  003D                     __ptext748:	
  7450 ;; =============== function _isdigit ends ============
  7451                           
  7452                           
  7453 ;; *************** function _putch *****************
  7454 ;; Defined at:
  7455 ;;		line 465 in file "C:\Users\petir\Documents\PIC_PROG\C_EEPROM-I2C\eeprom_i2c.c"
  7456 ;; Parameters:    Size  Location     Type
  7457 ;;  dato            1    wreg     unsigned char 
  7458 ;; Auto vars:     Size  Location     Type
  7459 ;;  dato            1    0[COMMON] unsigned char 
  7460 ;; Return value:  Size  Location     Type
  7461 ;;		None               void
  7462 ;; Registers used:
  7463 ;;		wreg
  7464 ;; Tracked objects:
  7465 ;;		On entry : 0/0
  7466 ;;		On exit  : 60/0
  7467 ;;		Unchanged: FFF9F/0
  7468 ;; Data sizes:     COMMON   BANK0   BANK1   BANK3   BANK2
  7469 ;;      Params:         0       0       0       0       0
  7470 ;;      Locals:         1       0       0       0       0
  7471 ;;      Temps:          0       0       0       0       0
  7472 ;;      Totals:         1       0       0       0       0
  7473 ;;Total ram usage:        1 bytes
  7474 ;; Hardware stack levels used:    1
  7475 ;; This function calls:
  7476 ;;		Nothing
  7477 ;; This function is called by:
  7478 ;;		_main
  7479 ;; This function uses a non-reentrant model
  7480 ;;
  7481  003D                     _putch:	
  7482                           
  7483                           ; Regs used in _putch: [wreg]
  7484                           ;putch@dato stored from wreg
  7485  003D  00F0               	movwf	putch@dato
  7486  003E                     l1162:	
  7487                           ;eeprom_i2c.c: 466: while(!TXIF) continue;
  7488                           
  7489  003E  1283               	bcf	3,5	;RP0=0, select bank0
  7490  003F  1303               	bcf	3,6	;RP1=0, select bank0
  7491  0040  1E0C               	btfss	12,4
  7492  0041  283E               	goto	l1162
  7493                           
  7494                           ;eeprom_i2c.c: 467: TXREG=dato;
  7495  0042  0870               	movf	putch@dato,w
  7496  0043  0099               	movwf	25	;volatile
  7497  0044  0008               	return
  7498  0045                     __end_of_putch:	
  7499                           
  7500                           	psect	text755
  7501  0045                     __ptext755:	
  7502 ;; =============== function _i2c_start ends ============
  7503                           
  7504                           
  7505 ;; *************** function _i2c_init *****************
  7506 ;; Defined at:
  7507 ;;		line 81 in file "C:\Users\petir\Documents\PIC_PROG\C_EEPROM-I2C\eeprom_i2c.c"
  7508 ;; Parameters:    Size  Location     Type
  7509 ;;		None
  7510 ;; Auto vars:     Size  Location     Type
  7511 ;;		None
  7512 ;; Return value:  Size  Location     Type
  7513 ;;		None               void
  7514 ;; Registers used:
  7515 ;;		wreg, status,2
  7516 ;; Tracked objects:
  7517 ;;		On entry : 60/0
  7518 ;;		On exit  : 60/20
  7519 ;;		Unchanged: FFF9F/0
  7520 ;; Data sizes:     COMMON   BANK0   BANK1   BANK3   BANK2
  7521 ;;      Params:         0       0       0       0       0
  7522 ;;      Locals:         0       0       0       0       0
  7523 ;;      Temps:          0       0       0       0       0
  7524 ;;      Totals:         0       0       0       0       0
  7525 ;;Total ram usage:        0 bytes
  7526 ;; Hardware stack levels used:    1
  7527 ;; This function calls:
  7528 ;;		Nothing
  7529 ;; This function is called by:
  7530 ;;		_main
  7531 ;; This function uses a non-reentrant model
  7532 ;;
  7533  0045                     _i2c_init:	
  7534                           
  7535                           ;eeprom_i2c.c: 82: TRISCbits.TRISC3=1;
  7536                           
  7537                           ; Regs used in _i2c_init: [wreg+status,2]
  7538  0045  1683               	bsf	3,5	;RP0=1, select bank1
  7539  0046  1587               	bsf	7,3	;volatile
  7540                           
  7541                           ;eeprom_i2c.c: 83: TRISCbits.TRISC4=1;
  7542  0047  1607               	bsf	7,4	;volatile
  7543                           
  7544                           ;eeprom_i2c.c: 84: SSPSTAT=0b10000000;
  7545  0048  3080               	movlw	128
  7546  0049  0094               	movwf	20	;volatile
  7547                           
  7548                           ;eeprom_i2c.c: 85: SSPCON =0b00101000;
  7549  004A  3028               	movlw	40
  7550  004B  1283               	bcf	3,5	;RP0=0, select bank0
  7551  004C  0094               	movwf	20	;volatile
  7552                           
  7553                           ;eeprom_i2c.c: 86: SSPCON2 =0;
  7554  004D  1683               	bsf	3,5	;RP0=1, select bank1
  7555  004E  0191               	clrf	17	;volatile
  7556                           
  7557                           ;eeprom_i2c.c: 89: SSPADD = ((4000000/(4UL*100000UL))-1);
  7558  004F  3009               	movlw	9
  7559  0050  0093               	movwf	19	;volatile
  7560  0051  0008               	return
  7561  0052                     __end_of_i2c_init:	
  7562                           
  7563                           	psect	text757
  7564  0000                     __ptext757:	
  7565 ;; =============== function _msecbase ends ============
  7566                           
  7567  007E                     btemp	set	126	;btemp
  7568  007E                     wtemp0	set	126


HI-TECH Software PICC Macro Assembler V9.82 build 9453 
Symbol Table                                                                                   Wed Nov 20 16:01:04 2019

                    pc 0002         ___bmul@product 007A           ___awdiv@sign 007B                     fsr 0004  
  ___wmul@multiplicand 0072           ___ftadd@exp1 0047           ___ftadd@exp2 0046           ___ftadd@sign 0045  
                  _RA4 002C                    _RA6 002E                    _RA7 002F                    _PR2 0092  
                  _nin 00D3                    _num 00D0                    fsr0 0004                    indf 0000  
         ___awmod@sign 0075            lcd_goto@pos 0075                   l1101 1623                   l1110 0000  
                 l1104 0000                   l1113 0000                   l1122 0000                   l1107 1606  
                 l1116 0000                   l1134 0000                   l1230 00F6                   l1071 160A  
                 l1119 0000                   l1056 1678                   l1080 0000                   l1128 0000  
                 l1065 0000                   l1074 0000                   l1162 003E                   l1314 0000  
                 l1146 0AD0                   l1059 0000                   l1083 160F                   l1068 0000  
                 l1092 0000                   l1077 1614                   l1165 0000                   l1086 0000  
                 l1239 012E                   l1159 0C9C                   l1089 161A                   l2315 0000  
                 l2309 0000                   l2342 095F                   l2351 0000                   l2345 0000  
                 l2610 171E                   l2602 16FF                   l2530 0000                   l2603 0000  
                 l2429 06CC                   l2373 17BA                   l5110 0000                   l2462 0000  
                 l5112 0000                   l5120 0000                   l2560 0000                   l2472 0000  
                 l2552 0000                   l2449 0000                   l5114 0000                   l5122 0000  
                 l5202 0000                   l6010 0370                   l6002 033C                   l2299 0000  
                 l2491 0000                   l2395 0000                   l5116 0000                   l5124 0000  
                 l5132 0000                   l5220 16BF                   l5212 0000                   l5204 1689  
                 l5300 096C                   l2476 0000                   l6012 0000                   l5118 0000  
                 l5126 0000                   l5134 0000                   l5150 0677                   l5142 0000  
                 l5222 0000                   l5214 0000                   l5206 168E                   l5310 0000  
                 l6110 053B                   l6022 0000                   l2567 15AB                   l5136 0000  
                 l5144 0000                   l5216 0000                   l5312 0000                   l5304 0000  
                 l5400 0000                   l6120 0560                   l6104 0000                   l6016 0399  
                 l6008 0000                   l6200 0000                   l5138 0000                   l5170 0000  
                 l5162 0000                   l5154 0000                   l5234 1712                   l5226 0000  
                 l5218 0000                   l5250 0F5D                   l5306 0000                   l5330 0F75  
                 l5322 0000                   l5402 0E7D                   l6114 0553                   l6106 0527  
                 l6042 0000                   l6034 03BB                   l6018 03AD                   l6026 039D  
                 l6210 0000                   l6202 0000                   l5172 1576                   l5164 0000  
                 l5156 1554                   l5244 1728                   l5236 0000                   l5228 0000  
                 l5316 0986                   l5308 0972                   l5340 0F93                   l5332 0F7A  
                 l5324 0000                   l5412 0E8B                   l5404 0000                   l5500 0000  
                 l6140 0000                   l6132 0599                   l6060 0449                   l6052 040F  
                 l6044 0000                   l6028 03B2                   l6300 0000                   l6220 0000  
                 l6212 0000                   l6204 0000                   l5190 0000                   l5182 0000  
                 l5174 0000                   l5166 0000                   l5158 1559                   l5238 171A  
                 l5270 0683                   l5318 0000                   l5334 0F7F                   l5326 0F71  
                 l5350 0000                   l5422 0000                   l5414 0000                   l5502 072C  
                 l6150 0000                   l6142 05AE                   l6134 059C                   l6126 057A  
                 l6070 0000                   l6062 0000                   l6054 0000                   l6046 03EC  
                 l6038 03E9                   l6310 0000                   l6302 0000                   l6230 0000  
                 l6222 0000                   l6214 0000                   l6206 0000                   l5192 15A7  
                 l5168 0000                   l5256 0000                   l5248 0000                   l5272 0000  
                 l5264 0000                   l5280 0000                   l5344 0000                   l5336 0F89  
                 l5360 0000                   l5352 069C                   l5424 0EA2                   l5440 0611  
                 l5432 0000                   l5512 0000                   l5600 1785                   l6136 05A0  
                 l6128 057D                   l6080 0000                   l6072 0000                   l6064 0000  
                 l6056 0000                   l6048 0400                   l6320 0000                   l6304 0000  
                 l6240 0000                   l6232 0000                   l6224 0000                   l6216 0000  
                 l6208 0000                   l5178 0000                   l5258 0000                   l5274 0000  
                 l5266 067B                   l5290 0000                   l5282 0000                   l5346 0000  
                 l5338 0F8E                   l5370 06C0                   l5362 0000                   l5354 06A1  
                 l5426 0000                   l5418 0000                   l5514 0EB9                   l5506 0000  
                 l5602 0000                   l5610 179E                   l6154 05B8                   l6138 0000  
                 l6074 04B5                   l6058 0428                   l6330 0000                   l6306 0000  
                 l6250 0000                   l6242 0000                   l6234 0000                   l6226 0000  
                 l6218 0000                   l6170 0000                   l6162 0000                   l5188 159F  
                 l5284 0000                   l5348 0000                   l5380 06D6                   l5372 0000  
                 l5364 0000                   l5356 0000                   l5428 0EAA                   l5452 0000  
                 l5460 0000                   l5532 0000                   l5508 0000                   l5620 17B6  
                 l5612 17A2                   l5700 0000                   l6092 04F1                   l6084 0000  
                 l6076 04C1                   l6156 0065                   l6332 0000                   l6324 0000  
                 l6316 0B55                   l6308 0000                   l6260 0000                   l6252 0000  
                 l6236 0000                   l6228 0000                   l6180 0000                   l6172 0000  
                 l6164 0000                   l5198 15B5                   l5294 0000                   l5286 0959  
                 l5382 0000                   l5374 06C8                   l5358 0000                   l5390 0000  
                 l5446 0000                   l5470 0000                   l5526 0ECC                   l5534 0EDF  
                 l5518 0EC0                   l5542 1660                   l5550 0000                   l5630 0000  
                 l5614 0000                   l5606 1794                   l5710 0000                   l6086 04E5  
                 l6078 0000                   l6158 05FC                   l6342 0BAE                   l6334 0000  
                 l6318 0000                   l6326 0AC6                   l6270 0000                   l6262 0000  
                 l6238 0000                   l6190 0000                   l6182 0000                   l6174 0000  
                 l6166 0000                   l5384 06E4                   l5448 0636                   l5472 0000  
                 l5464 064E                   l5480 0000                   l5536 0000                   l5560 0000  
                 l5552 0000                   l5640 0000                   l5632 17D0                   l5624 0000  
                 l5608 1799                   l5712 0CA9                   l5704 0000                   l5720 0CBC  
                 l6360 0000                   l6352 0000                   l6344 0000                   l6336 0000  
                 l6328 0B90                   l6280 0000                   l6272 0000                   l6256 0000  
                 l6248 0A41                   l6192 0000                   l6184 0000                   l6176 0000  
                 l6168 0000                   l5298 0000                   l5394 0000                   l5490 0701  
                 l5482 0000                   l5538 0EE7                   l5546 0000                   l5562 0000  
                 l5554 0000                   l5642 0000                   l5634 0000                   l5626 17C5  
                 l5618 17B1                   l5570 0000                   l5706 0000                   l5722 0CC7  
                 l5730 0000                   l5810 0E53                   l6098 04F3                   l6370 0000  
                 l6354 0000                   l6346 0000                   l6290 0000                   l6282 0000  
                 l6258 0000                   l6194 0000                   l6186 09BA                   l6178 0000  
                 l5396 0E74                   l5388 0000                   l5468 065D                   l5492 0000  
                 l5548 1662                   l5564 0000                   l5556 0000                   l5644 17EC  
                 l5636 0000                   l5572 0000                   l5660 0F0E                   l5716 0000  
                 l5732 0000                   l5740 0000                   l5804 0E0E                   l5820 0000  
                 l5900 0000                   l6356 0000                   l6292 0000                   l6276 0000  
                 l6268 0A84                   l6196 0000                   l6188 0000                   l5566 0000  
                 l5558 0000                   l5590 0000                   l5582 1768                   l5574 0000  
                 l5670 0000                   l5662 0000                   l5654 0EFD                   l5734 0000  
                 l5726 0000                   l5750 0000                   l5742 0000                   l5814 0000  
                 l5822 0000                   l5830 1632                   l5910 0166                   l5902 013F  
                 l6374 0000                   l6366 0C6D                   l6358 0000                   l6294 0000  
                 l6286 0000                   l6278 0000                   l6198 0000                   l5496 0000  
                 l5584 0000                   l5672 0000                   l5664 0000                   l5648 0000  
                 l5736 0000                   l5728 0000                   l5744 0000                   l5752 0000  
                 l5816 0000                   l5824 0000                   l5832 0000                   l5904 014D  
                 l6368 0000                   l6376 0BD1                   l6296 0000                   l5578 1761  
                 l5690 0F35                   l5682 0F29                   l5674 0000                   l5666 0000  
                 l5746 0000                   l5738 0000                   l5770 092D                   l5762 08D9  
                 l5834 0000                   l5930 0000                   l5922 019D                   l5906 0000  
                 l5914 0172                   l5850 0092                   l5842 0000                   l6298 0000  
                 l5596 0000                   l5588 1777                   l5684 0000                   l5676 0000  
                 l5668 0000                   l5748 0000                   l5756 0000                   l5828 0000  
                 l5940 0000                   l5932 01C9                   l5924 0000                   l5908 0000  
                 l5916 018D                   l5860 0000                   l5852 0000                   l5844 007E  
                 l5836 0000                   l5598 0000                   l5694 0F3F                   l5686 0000  
                 l5678 0F1F                   l5766 0000                   l5774 0000                   l5942 0000  
                 l5934 0000                   l5926 0000                   l5862 0000                   l5870 00F1  
                 l5854 0000                   l5846 0000                   l5696 0000                   l5688 0000  
                 l5792 0D8D                   l5960 024F                   l5952 0216                   l5944 0000  
                 l5872 0000                   l5856 00B7                   l5698 0000                   l5786 0D48  
                 l5778 0000                   l5954 0000                   l5946 0000                   l5938 0000  
                 l5882 0106                   l5874 00F8                   l5866 0000                   l5796 0DA4  
                 l5980 02CF                   l5956 0000                   l5948 0000                   l5964 025F  
                 l5876 0000                   l5868 00C8                   l5990 0000                   l5886 0108  
                 l5878 0000                   l5992 02FF                   l5976 02BE                   l5968 0293  
                 l5896 013D                   l5888 011D                   l5994 0000                   l5986 0000  
                 l5996 033A                   l5988 0000                   STR_1 1086                   STR_2 1086  
                 STR_3 10BF                   STR_4 10C5                   STR_5 10A2                   STR_6 10AD  
                 STR_7 1095                   STR_8 10BF                   STR_9 10C5                   _T0IF 005A  
                 u2320 0000                   u3200 0000                   u2065 16E3                   u2325 06A5  
                 u3205 01DC                   u3125 0128                   u3135 0134                   u3305 0369  
                 u2435 0E94                   u3245 0268                   u3255 029D                   u2625 0ED2  
                 u3345 03A6                   u2485 061F                   u2565 0714                   u3525 0570  
                 u3285 02BC                   u3605 0A5F                   u2655 1668                   u3535 058B  
                 u3455 0520                   u3375 03F5                   u3385 040A                   u3475 0535  
                 u3635 0AED                   u3485 054B                   u1975 1585                   _PIR1 000C  
                 _TMR0 0001                   _TXIF 0064       __end_of_I2C_EEIN 1601                   _main 09A0  
         ___ftpack@arg 0070           ___ftpack@exp 0073                   btemp 007E       __end_of_I2C_nack 1627  
                 start 0000           _sprintf$1951 00A0      ___bmul@multiplier 007B           ___ftmul@cntr 003A  
        ??_i2c_restart 0070           ___ftmul@sign 003B           ___fttol@exp1 002C           ___fttol@lval 0028  
                ?_main 0070        __end_of___awdiv 0EAF        __end_of___lbdiv 096E        __end_of___ftadd 1800  
                STR_10 10A2                  STR_11 10B8        __end_of___awmod 0EEC        __end_of___lbmod 098A  
      __end_of___ftneg 073D                  _ANSEL 0188        __end_of___lldiv 0735        __end_of___ftmul 0F5B  
      ___awdiv@divisor 0076        __end_of___llmod 063F        __end_of___ftsub 0755        __end_of___fttol 06ED  
                _T2CON 0012        ___awdiv@counter 007A                  _RCSTA 0018                  _SPBRG 0099  
                _PORTA 0005                  _PORTB 0006                  _PORTD 0008                  _TRISA 0085  
                _TRISB 0086                  _TRISC 0087                  _TRISD 0088                  _TRISE 0089  
                _TXREG 0019                  _TXSTA 0098           ___lltoft@exp 007C      __end_of_I2C_EEOUT 15E0  
                _carac 00D5          ___awtoft@sign 007B                  _scale 0CD8        __end_of_isdigit 0679  
                _pause 1660          ___ftpack@sign 0074                  _putch 003D                  main@i 00C9  
                main@x 00CB                  pclath 000A                  status 0003                  wtemp0 007E  
      __end_of_sprintf 0601        ___lbdiv@divisor 0075        ___lbdiv@counter 0077           __end_of_main 0C9F  
     __end_of_i2c_init 0052       __end_of_i2c_read 161F       __end_of_i2c_stop 1612    __end_of_i2c_restart 1617  
               ??_main 005B          ___fttol@sign1 0027   __size_of__tdiv_to_l_ 0078                 _ADCON0 001F  
     ___llmod@dividend 0024                 ?_scale 003C                 _ADRESH 001E                 _ADRESL 009E  
         I2C_EEIN@data 0073                 _CCPR1L 0015                 ?_pause 0070                 _CCPR2L 001B  
     ___awdiv@dividend 0078       __end_of___awtoft 0CBA                 ?_putch 0070       __end_of___ftpack 0FA7  
               _ANSELH 0189       __end_of___lltoft 0CD8                 _OSCCON 008F                 _SSPADD 0093  
               _TRISC1 0439                 _TRISC2 043A                 _TRISC6 043E                 _TRISC7 043F  
               _SSPCON 0014                 _SSPBUF 0013     __size_of_i2c_start 0004     __size_of_i2c_write 0008  
     __end_of_lcd_goto 15C5                 ___bmul 0F5B       __end_of_lcd_puts 164E                 ___ftge 063F  
               ___wmul 0679              ??___awdiv 007A              ??___lbdiv 0076              ??___ftadd 0042  
            ??___awmod 0074              ??___lbmod 0071              ??___ftneg 0073              ??___lldiv 0078  
            ??___ftmul 0033              ??___llmod 007D              ??___ftsub 007E              ??___fttol 0024  
               _fround 084E       ___awdiv@quotient 007C        ___awmod@divisor 0070        ___awmod@counter 0074  
     __end_of_msecbase 167C              ?_I2C_EEIN 0071  ___ftmul@f3_as_product 0037              ??_isdigit 0070  
               pause@x 0072              ?_I2C_nack 0070              ??_sprintf 0056       ___lbdiv@dividend 0076  
      ___lbmod@divisor 0070        ___lbmod@counter 0073             ___ftadd@f1 003C             ___ftadd@f2 003F  
           ___ftge@ff1 0070             ___ftge@ff2 0073             ___ftneg@f1 0070             ___awtoft@c 0078  
  ___bmul@multiplicand 0079             ___ftmul@f1 002D             ___ftmul@f2 0030             ___ftsub@f1 004B  
           ___ftsub@f2 0048             ___fttol@f1 0020         __pcstackCOMMON 0070            _i2c_restart 1612  
           ___lltoft@c 0078          __end_of_scale 0E6A          __end_of_pause 1671          __end_of_putch 0045  
     ___lbdiv@quotient 0078             ??_I2C_EEIN 0072      __end_of_i2c_start 160D      __end_of_i2c_write 1609  
           __div_to_l_ 167C             ??_I2C_nack 0070     __size_of_lcd_clear 000A        __div_to_l_@exp1 0025  
   __size_of_lcd_write 0012        __div_to_l_@cntr 0024           sprintf@integ 00A5                ??_scale 003F  
              ??_pause 0072        __div_to_l_@quot 0020           sprintf@width 00AA                ??_putch 0070  
           __pbssBANK1 00D0              ?_i2c_init 0070              ?_i2c_read 0070              ?_i2c_stop 0070  
        __div_to_l_@f1 0070          __div_to_l_@f2 0073             __pmaintext 09A0                ?___bmul 0079  
              ?___ftge 0070                ?___wmul 0070                _CCP1CON 0017                _CCP2CON 001D  
              _BAUDCTL 0187                ?_fround 0048              ?___awtoft 0078              ?___ftpack 0070  
            ?___lltoft 0078                _GO_DONE 00F9          I2C_EEOUT@data 0075                _SSPCON2 0091  
            ?_lcd_goto 0070                _SSPSTAT 0094              ?_lcd_puts 0075              _I2C_EEOUT 15C5  
           ??_i2c_init 0070             ??_i2c_read 0070             ??_i2c_stop 0070              ?_msecbase 0070  
           _scale$2943 0043      __end_of_lcd_clear 1631        __size_of___bmul 000E        __size_of___ftge 002C  
              ___awdiv 0E6A                ___lbdiv 0953                ___ftadd 173E                ___awmod 0EAF  
              ___lbmod 096E      __end_of_lcd_write 1660                ___ftneg 0735                ___lldiv 06ED  
      __size_of___wmul 0019                ___ftmul 0EEC                ___llmod 0601                ___ftsub 073D  
              ___fttol 0692             ??___awtoft 007B             ??___ftpack 0075        __size_of_fround 0105  
           ??___lltoft 007C            ?__div_to_l_ 0070                _dpowers 105E                _isdigit 066B  
     ___awmod@dividend 0072                _sprintf 0061             ??_lcd_goto 0075             ??_lcd_puts 0077  
 end_of_initialization 005D             ?_I2C_EEOUT 0074             ??_msecbase 0070        ___lldiv@divisor 0070  
      ___lldiv@counter 007C         __tdiv_to_l_@f1 0070         __tdiv_to_l_@f2 0073          ??__tdiv_to_l_ 0076  
     ___lbmod@dividend 0072      __size_of_I2C_EEIN 0021              _TRISCbits 0087      __size_of_I2C_nack 0008  
           main@x_1881 00CE             main@x_1874 00CC             main@x_1877 00CD            ___lbmod@rem 0074  
           main@buffer 00B9    __size_of__div_to_l_ 00B5             lcd_write@c 0074            ___ftmul@exp 0036  
         ?_i2c_restart 0070         __end_of___bmul 0F69         __end_of___ftge 066B         __end_of___wmul 0692  
       __end_of_fround 0953    start_initialization 0052    __end_of__tdiv_to_l_ 15BE              _i2c_start 1609  
            _i2c_write 1601            ??_I2C_EEOUT 0076        ___llmod@divisor 0020        ___llmod@counter 007D  
    __size_of_i2c_init 000D      __size_of_i2c_read 0008      __size_of_i2c_stop 0005               ??___bmul 007A  
             ??___ftge 0076               ??___wmul 0074               ??_fround 007E             fround@prec 0051  
    __size_of___awtoft 001B      __size_of___ftpack 003E           pause@usvalue 0070      __size_of___lltoft 001E  
        __pcstackBANK0 0020          __pcstackBANK1 00A0             ?_i2c_start 0070             ?_i2c_write 0070  
         _isdigit$2459 0070      __size_of_lcd_goto 0007            sprintf@_val 00B5            sprintf@flag 00A8  
    __size_of_lcd_puts 001D            sprintf@fval 00AE            sprintf@prec 00B2      __size_of_msecbase 000B  
             ?___awdiv 0076               ?___lbdiv 0075               ?___ftadd 003C               ?___awmod 0070  
            __ptext720 1631              __ptext721 1627              __ptext730 173E              __ptext722 073D  
            __ptext731 15E0              __ptext723 0CD8               ?___lbmod 0070              __ptext740 0F69  
            __ptext732 1660              __ptext724 084E              __ptext741 096E              __ptext733 0EAF  
            __ptext725 164E              __ptext750 161F              __ptext742 0953              __ptext734 06ED  
            __ptext726 15C5              __ptext718 0061              __ptext751 1617              __ptext743 0679  
            __ptext735 063F              __ptext727 0CBA              __ptext719 15BE              __ptext752 160D  
            __ptext744 0F5B              __ptext736 0735              __ptext728 0C9F              __ptext753 1612  
            __ptext745 167C              __ptext737 0601              __ptext729 0EEC              __ptext754 1609  
            __ptext746 1546              __ptext738 0E6A              __ptext755 0045              __ptext747 066B  
            __ptext739 0692              __ptext756 1671              __ptext748 003D              __ptext757 0000  
            __ptext749 1601               ?___ftneg 0070               ?___lldiv 0070               ?___ftmul 002D  
             ?___llmod 0020               ?___ftsub 0048              __npowers_ 1010               ?___fttol 0020  
            _lcd_clear 1627              __pstrings 1000            __tdiv_to_l_ 1546              _lcd_write 164E  
             _I2C_EEIN 15E0           ??__div_to_l_ 0076               ?_isdigit 0070               _I2C_nack 161F  
             ?_sprintf 0052         __size_of_scale 0192         __size_of_pause 0011         __size_of_putch 0008  
       ___wmul@product 0074               _PIR1bits 000C     __end_of__div_to_l_ 1731   __size_of_i2c_restart 0005  
           ?_lcd_clear 0070            __stringbase 100F             ?_lcd_write 0070      ___wmul@multiplier 0070  
            lcd_puts@s 0075            ??_i2c_start 0070            ??_i2c_write 0070       I2C_EEIN@address1 0072  
     I2C_EEIN@address2 0071               _i2c_init 0045               _i2c_read 1617               _i2c_stop 160D  
    i2c_write@I2C_data 0070       __size_of___awdiv 0045       __size_of___lbdiv 001B       __size_of___ftadd 00C2  
     __size_of___awmod 003D       __size_of___lbmod 001C       __size_of___ftneg 0008       __size_of___lldiv 0048  
     __size_of___ftmul 006F       __size_of___llmod 003E       __size_of___ftsub 0018       __size_of___fttol 005B  
             ___awtoft 0C9F               ___ftpack 0F69            _fround$2941 004E            _fround$2942 004B  
             ___lltoft 0CBA             sprintf@exp 00AC       __size_of_isdigit 000E               __powers_ 1037  
             _lcd_goto 15BE               _lcd_puts 1631       __size_of_sprintf 05A0          __size_of_main 02FF  
             _msecbase 1671               main@cnt1 00C8               main@cnt2 00CF            ??_lcd_clear 0075  
          ??_lcd_write 0074              putch@dato 0070      I2C_EEOUT@address1 0076      I2C_EEOUT@address2 0074  
             isdigit@c 0071               scale@scl 0046              sprintf@ap 00A4       __tdiv_to_l_@exp1 0025  
     __tdiv_to_l_@cntr 0024              sprintf@sp 00B1       __tdiv_to_l_@quot 0020       ___lldiv@dividend 0074  
            stringcode 100A           ?__tdiv_to_l_ 0070             _OPTION_REG 0081               sprintf@c 00B4  
             sprintf@f 0052       ___lldiv@quotient 0078               stringdir 100A               stringtab 1000  
          _SSPCON2bits 0091     __size_of_I2C_EEOUT 001B  
